
Allocating common symbols
Common symbol       size              file

ReadBuf             0x3e8             ..\obj\stm32f10x_RS485Master.o
chSumUART           0x1               ..\obj\stm32f10x_RS485.o
pSostRS485          0x4               ..\obj\stm32f10x_RS485.o
GLF                 0x4               ..\obj\stm32f10x_RS485Master.o
SetSpeed            0x2               ..\obj\main.o
StatusByte          0x2               ..\obj\stm32f10x_RS485Master.o
RSTime              0x4               ..\obj\stm32f10x_RS485.o
pNumBlock           0x4               ..\obj\stm32f10x_RS485.o
Pause               0x18              ..\obj\main.o
Work                0x18              ..\obj\main.o
bOutIPCBlock        0x1               ..\obj\stm32f10x_RS485Master.o
cModule             0x1               ..\obj\stm32f10x_RS485Master.o
pDataRSOUT          0x4               ..\obj\stm32f10x_RS485Master.o
PHASE_RS_OUT        0x1               ..\obj\stm32f10x_RS485Master.o
fanCycle            0x2               ..\obj\stm32f10x_RS485Master.o
GD                  0x17f0            ..\obj\main.o
RSOutTime           0x4               ..\obj\stm32f10x_RS485Master.o
nReset              0x2               ..\obj\main.o
ModulData           0x3dc2            ..\obj\stm32f10x_RS485Master.o
pADRGD              0x4               ..\obj\stm32f10x_RS485.o
FanBlock            0x4               ..\obj\stm32f10x_RS485Master.o
ptrUART             0x4               ..\obj\stm32f10x_RS485.o
FanBroadcast        0xe               ..\obj\stm32f10x_RS485Master.o
NumBlock            0x1               ..\obj\main.o
fSendByte           0x2               ..\obj\stm32f10x_RS485.o
pNFCtr              0x4               ..\obj\stm32f10x_RS485.o
Head                0xa               ..\obj\stm32f10x_RS485.o
fanCmd              0x1               ..\obj\stm32f10x_RS485Master.o
pDataRS             0x4               ..\obj\stm32f10x_RS485.o
HeadOUT             0xa               ..\obj\stm32f10x_RS485Master.o
ptrUARTOUT          0x4               ..\obj\stm32f10x_RS485Master.o
fAdrSend            0x2               ..\obj\stm32f10x_RS485.o
AdrGD               0x40              ..\obj\main.o
cOperInModule       0x1               ..\obj\stm32f10x_RS485Master.o
IWDG_Reset          0x4               ..\obj\main.o
cCycle              0x1               ..\obj\stm32f10x_RS485Master.o
PHASE_RS            0x1               ..\obj\stm32f10x_RS485.o
GLFanData           0x4               ..\obj\stm32f10x_RS485Master.o
chSumUARTOUT        0x1               ..\obj\stm32f10x_RS485Master.o

Discarded input sections

 .text          0x00000000        0x0 ..\obj\stm32f10x_rtc.o
 .data          0x00000000        0x0 ..\obj\stm32f10x_rtc.o
 .bss           0x00000000        0x0 ..\obj\stm32f10x_rtc.o
 .text.RTC_ITConfig
                0x00000000       0x28 ..\obj\stm32f10x_rtc.o
 .text.RTC_EnterConfigMode
                0x00000000       0x14 ..\obj\stm32f10x_rtc.o
 .text.RTC_ExitConfigMode
                0x00000000       0x1c ..\obj\stm32f10x_rtc.o
 .text.RTC_GetCounter
                0x00000000       0x14 ..\obj\stm32f10x_rtc.o
 .text.RTC_SetCounter
                0x00000000       0x20 ..\obj\stm32f10x_rtc.o
 .text.RTC_SetPrescaler
                0x00000000       0x20 ..\obj\stm32f10x_rtc.o
 .text.RTC_SetAlarm
                0x00000000       0x20 ..\obj\stm32f10x_rtc.o
 .text.RTC_GetDivider
                0x00000000       0x18 ..\obj\stm32f10x_rtc.o
 .text.RTC_WaitForLastTask
                0x00000000       0x14 ..\obj\stm32f10x_rtc.o
 .text.RTC_WaitForSynchro
                0x00000000       0x2c ..\obj\stm32f10x_rtc.o
 .text.RTC_GetFlagStatus
                0x00000000       0x14 ..\obj\stm32f10x_rtc.o
 .text.RTC_ClearFlag
                0x00000000       0x14 ..\obj\stm32f10x_rtc.o
 .text.RTC_GetITStatus
                0x00000000       0x28 ..\obj\stm32f10x_rtc.o
 .text.RTC_ClearITPendingBit
                0x00000000       0x14 ..\obj\stm32f10x_rtc.o
 .text          0x00000000        0x0 ..\obj\stm32f10x_tim.o
 .data          0x00000000        0x0 ..\obj\stm32f10x_tim.o
 .bss           0x00000000        0x0 ..\obj\stm32f10x_tim.o
 .text.TI1_Config
                0x00000000       0x8c ..\obj\stm32f10x_tim.o
 .text.TI2_Config
                0x00000000       0x94 ..\obj\stm32f10x_tim.o
 .text.TIM_DeInit
                0x00000000      0x280 ..\obj\stm32f10x_tim.o
 .text.TIM_TimeBaseInit
                0x00000000       0xd0 ..\obj\stm32f10x_tim.o
 .text.TIM_OC1Init
                0x00000000       0xb0 ..\obj\stm32f10x_tim.o
 .text.TIM_OC2Init
                0x00000000       0x9c ..\obj\stm32f10x_tim.o
 .text.TIM_OC3Init
                0x00000000       0x98 ..\obj\stm32f10x_tim.o
 .text.TIM_OC4Init
                0x00000000       0x80 ..\obj\stm32f10x_tim.o
 .text.TIM_BDTRConfig
                0x00000000       0x24 ..\obj\stm32f10x_tim.o
 .text.TIM_TimeBaseStructInit
                0x00000000       0x14 ..\obj\stm32f10x_tim.o
 .text.TIM_OCStructInit
                0x00000000       0x18 ..\obj\stm32f10x_tim.o
 .text.TIM_ICStructInit
                0x00000000       0x14 ..\obj\stm32f10x_tim.o
 .text.TIM_BDTRStructInit
                0x00000000       0x14 ..\obj\stm32f10x_tim.o
 .text.TIM_Cmd  0x00000000       0x20 ..\obj\stm32f10x_tim.o
 .text.TIM_CtrlPWMOutputs
                0x00000000       0x28 ..\obj\stm32f10x_tim.o
 .text.TIM_ITConfig
                0x00000000       0x18 ..\obj\stm32f10x_tim.o
 .text.TIM_GenerateEvent
                0x00000000        0x4 ..\obj\stm32f10x_tim.o
 .text.TIM_DMAConfig
                0x00000000        0x8 ..\obj\stm32f10x_tim.o
 .text.TIM_DMACmd
                0x00000000       0x18 ..\obj\stm32f10x_tim.o
 .text.TIM_InternalClockConfig
                0x00000000       0x14 ..\obj\stm32f10x_tim.o
 .text.TIM_ETRConfig
                0x00000000       0x18 ..\obj\stm32f10x_tim.o
 .text.TIM_ETRClockMode2Config
                0x00000000       0x14 ..\obj\stm32f10x_tim.o
 .text.TIM_ETRClockMode1Config
                0x00000000       0x20 ..\obj\stm32f10x_tim.o
 .text.TIM_PrescalerConfig
                0x00000000        0x8 ..\obj\stm32f10x_tim.o
 .text.TIM_CounterModeConfig
                0x00000000       0x14 ..\obj\stm32f10x_tim.o
 .text.TIM_SelectInputTrigger
                0x00000000       0x14 ..\obj\stm32f10x_tim.o
 .text.TIM_TIxExternalClockConfig
                0x00000000       0x34 ..\obj\stm32f10x_tim.o
 .text.TIM_ITRxExternalClockConfig
                0x00000000       0x14 ..\obj\stm32f10x_tim.o
 .text.TIM_EncoderInterfaceConfig
                0x00000000       0x4c ..\obj\stm32f10x_tim.o
 .text.TIM_ForcedOC1Config
                0x00000000       0x14 ..\obj\stm32f10x_tim.o
 .text.TIM_ForcedOC2Config
                0x00000000       0x18 ..\obj\stm32f10x_tim.o
 .text.TIM_ForcedOC3Config
                0x00000000       0x14 ..\obj\stm32f10x_tim.o
 .text.TIM_ForcedOC4Config
                0x00000000       0x18 ..\obj\stm32f10x_tim.o
 .text.TIM_ARRPreloadConfig
                0x00000000       0x20 ..\obj\stm32f10x_tim.o
 .text.TIM_SelectCOM
                0x00000000       0x20 ..\obj\stm32f10x_tim.o
 .text.TIM_SelectCCDMA
                0x00000000       0x20 ..\obj\stm32f10x_tim.o
 .text.TIM_CCPreloadControl
                0x00000000       0x20 ..\obj\stm32f10x_tim.o
 .text.TIM_OC1PreloadConfig
                0x00000000       0x14 ..\obj\stm32f10x_tim.o
 .text.TIM_OC2PreloadConfig
                0x00000000       0x18 ..\obj\stm32f10x_tim.o
 .text.TIM_OC3PreloadConfig
                0x00000000       0x14 ..\obj\stm32f10x_tim.o
 .text.TIM_OC4PreloadConfig
                0x00000000       0x18 ..\obj\stm32f10x_tim.o
 .text.TIM_OC1FastConfig
                0x00000000       0x14 ..\obj\stm32f10x_tim.o
 .text.TIM_OC2FastConfig
                0x00000000       0x18 ..\obj\stm32f10x_tim.o
 .text.TIM_OC3FastConfig
                0x00000000       0x14 ..\obj\stm32f10x_tim.o
 .text.TIM_OC4FastConfig
                0x00000000       0x18 ..\obj\stm32f10x_tim.o
 .text.TIM_ClearOC1Ref
                0x00000000       0x14 ..\obj\stm32f10x_tim.o
 .text.TIM_ClearOC2Ref
                0x00000000       0x14 ..\obj\stm32f10x_tim.o
 .text.TIM_ClearOC3Ref
                0x00000000       0x14 ..\obj\stm32f10x_tim.o
 .text.TIM_ClearOC4Ref
                0x00000000       0x14 ..\obj\stm32f10x_tim.o
 .text.TIM_OC1PolarityConfig
                0x00000000       0x14 ..\obj\stm32f10x_tim.o
 .text.TIM_OC1NPolarityConfig
                0x00000000       0x14 ..\obj\stm32f10x_tim.o
 .text.TIM_OC2PolarityConfig
                0x00000000       0x18 ..\obj\stm32f10x_tim.o
 .text.TIM_OC2NPolarityConfig
                0x00000000       0x18 ..\obj\stm32f10x_tim.o
 .text.TIM_OC3PolarityConfig
                0x00000000       0x18 ..\obj\stm32f10x_tim.o
 .text.TIM_OC3NPolarityConfig
                0x00000000       0x18 ..\obj\stm32f10x_tim.o
 .text.TIM_OC4PolarityConfig
                0x00000000       0x18 ..\obj\stm32f10x_tim.o
 .text.TIM_CCxCmd
                0x00000000       0x24 ..\obj\stm32f10x_tim.o
 .text.TIM_CCxNCmd
                0x00000000       0x24 ..\obj\stm32f10x_tim.o
 .text.TIM_SelectOCxM
                0x00000000       0x54 ..\obj\stm32f10x_tim.o
 .text.TIM_UpdateDisableConfig
                0x00000000       0x20 ..\obj\stm32f10x_tim.o
 .text.TIM_UpdateRequestConfig
                0x00000000       0x20 ..\obj\stm32f10x_tim.o
 .text.TIM_SelectHallSensor
                0x00000000       0x20 ..\obj\stm32f10x_tim.o
 .text.TIM_SelectOnePulseMode
                0x00000000       0x1c ..\obj\stm32f10x_tim.o
 .text.TIM_SelectOutputTrigger
                0x00000000       0x1c ..\obj\stm32f10x_tim.o
 .text.TIM_SelectSlaveMode
                0x00000000       0x1c ..\obj\stm32f10x_tim.o
 .text.TIM_SelectMasterSlaveMode
                0x00000000       0x1c ..\obj\stm32f10x_tim.o
 .text.TIM_SetCounter
                0x00000000        0x4 ..\obj\stm32f10x_tim.o
 .text.TIM_SetAutoreload
                0x00000000        0x4 ..\obj\stm32f10x_tim.o
 .text.TIM_SetCompare1
                0x00000000        0x4 ..\obj\stm32f10x_tim.o
 .text.TIM_SetCompare2
                0x00000000        0x4 ..\obj\stm32f10x_tim.o
 .text.TIM_SetCompare3
                0x00000000        0x4 ..\obj\stm32f10x_tim.o
 .text.TIM_SetCompare4
                0x00000000        0x8 ..\obj\stm32f10x_tim.o
 .text.TIM_SetIC1Prescaler
                0x00000000       0x1c ..\obj\stm32f10x_tim.o
 .text.TIM_SetIC2Prescaler
                0x00000000       0x20 ..\obj\stm32f10x_tim.o
 .text.TIM_PWMIConfig
                0x00000000       0x68 ..\obj\stm32f10x_tim.o
 .text.TIM_SetIC3Prescaler
                0x00000000       0x1c ..\obj\stm32f10x_tim.o
 .text.TIM_SetIC4Prescaler
                0x00000000       0x20 ..\obj\stm32f10x_tim.o
 .text.TIM_ICInit
                0x00000000      0x174 ..\obj\stm32f10x_tim.o
 .text.TIM_SetClockDivision
                0x00000000       0x1c ..\obj\stm32f10x_tim.o
 .text.TIM_GetCapture1
                0x00000000        0x8 ..\obj\stm32f10x_tim.o
 .text.TIM_GetCapture2
                0x00000000        0x8 ..\obj\stm32f10x_tim.o
 .text.TIM_GetCapture3
                0x00000000        0x8 ..\obj\stm32f10x_tim.o
 .text.TIM_GetCapture4
                0x00000000        0x8 ..\obj\stm32f10x_tim.o
 .text.TIM_GetCounter
                0x00000000        0x8 ..\obj\stm32f10x_tim.o
 .text.TIM_GetPrescaler
                0x00000000        0x8 ..\obj\stm32f10x_tim.o
 .text.TIM_GetFlagStatus
                0x00000000        0xc ..\obj\stm32f10x_tim.o
 .text.TIM_ClearFlag
                0x00000000        0xc ..\obj\stm32f10x_tim.o
 .text.TIM_GetITStatus
                0x00000000       0x1c ..\obj\stm32f10x_tim.o
 .text.TIM_ClearITPendingBit
                0x00000000        0xc ..\obj\stm32f10x_tim.o
 .text          0x00000000        0x0 ..\obj\core_cm3.o
 .data          0x00000000        0x0 ..\obj\core_cm3.o
 .bss           0x00000000        0x0 ..\obj\core_cm3.o
 .text.__get_PSP
                0x00000000        0x8 ..\obj\core_cm3.o
 .text.__set_PSP
                0x00000000        0x8 ..\obj\core_cm3.o
 .text.__get_MSP
                0x00000000        0x8 ..\obj\core_cm3.o
 .text.__set_MSP
                0x00000000        0x8 ..\obj\core_cm3.o
 .text.__get_BASEPRI
                0x00000000        0x8 ..\obj\core_cm3.o
 .text.__set_BASEPRI
                0x00000000        0x8 ..\obj\core_cm3.o
 .text.__get_PRIMASK
                0x00000000        0x8 ..\obj\core_cm3.o
 .text.__set_PRIMASK
                0x00000000        0x8 ..\obj\core_cm3.o
 .text.__get_FAULTMASK
                0x00000000        0x8 ..\obj\core_cm3.o
 .text.__set_FAULTMASK
                0x00000000        0x8 ..\obj\core_cm3.o
 .text.__get_CONTROL
                0x00000000        0x8 ..\obj\core_cm3.o
 .text.__set_CONTROL
                0x00000000        0x8 ..\obj\core_cm3.o
 .text.__REV    0x00000000        0x4 ..\obj\core_cm3.o
 .text.__REV16  0x00000000        0x4 ..\obj\core_cm3.o
 .text.__REVSH  0x00000000        0x4 ..\obj\core_cm3.o
 .text.__RBIT   0x00000000        0x8 ..\obj\core_cm3.o
 .text.__LDREXB
                0x00000000        0x8 ..\obj\core_cm3.o
 .text.__LDREXH
                0x00000000        0x8 ..\obj\core_cm3.o
 .text.__LDREXW
                0x00000000        0x8 ..\obj\core_cm3.o
 .text.__STREXB
                0x00000000        0x8 ..\obj\core_cm3.o
 .text.__STREXH
                0x00000000        0x8 ..\obj\core_cm3.o
 .text.__STREXW
                0x00000000        0x8 ..\obj\core_cm3.o
 .text          0x00000000        0x0 ..\obj\system_stm32f10x.o
 .data          0x00000000       0x14 ..\obj\system_stm32f10x.o
 .bss           0x00000000        0x0 ..\obj\system_stm32f10x.o
 .text.SystemCoreClockUpdate
                0x00000000      0x128 ..\obj\system_stm32f10x.o
 .text          0x00000000        0x0 ..\obj\stm32f10x_pwr.o
 .data          0x00000000        0x0 ..\obj\stm32f10x_pwr.o
 .bss           0x00000000        0x0 ..\obj\stm32f10x_pwr.o
 .text.PWR_DeInit
                0x00000000       0x1c ..\obj\stm32f10x_pwr.o
 .text.PWR_BackupAccessCmd
                0x00000000        0xc ..\obj\stm32f10x_pwr.o
 .text.PWR_PVDCmd
                0x00000000        0xc ..\obj\stm32f10x_pwr.o
 .text.PWR_PVDLevelConfig
                0x00000000       0x14 ..\obj\stm32f10x_pwr.o
 .text.PWR_WakeUpPinCmd
                0x00000000        0xc ..\obj\stm32f10x_pwr.o
 .text.PWR_EnterSTOPMode
                0x00000000       0x40 ..\obj\stm32f10x_pwr.o
 .text.PWR_EnterSTANDBYMode
                0x00000000       0x2c ..\obj\stm32f10x_pwr.o
 .text.PWR_GetFlagStatus
                0x00000000       0x14 ..\obj\stm32f10x_pwr.o
 .text.PWR_ClearFlag
                0x00000000       0x14 ..\obj\stm32f10x_pwr.o
 .text          0x00000000        0x0 ..\obj\stm32f10x_gpio.o
 .data          0x00000000        0x0 ..\obj\stm32f10x_gpio.o
 .bss           0x00000000        0x0 ..\obj\stm32f10x_gpio.o
 .text.GPIO_DeInit
                0x00000000      0x10c ..\obj\stm32f10x_gpio.o
 .text.GPIO_AFIODeInit
                0x00000000       0x1c ..\obj\stm32f10x_gpio.o
 .text.GPIO_StructInit
                0x00000000       0x14 ..\obj\stm32f10x_gpio.o
 .text.GPIO_ReadInputDataBit
                0x00000000        0xc ..\obj\stm32f10x_gpio.o
 .text.GPIO_ReadInputData
                0x00000000        0x8 ..\obj\stm32f10x_gpio.o
 .text.GPIO_ReadOutputDataBit
                0x00000000        0xc ..\obj\stm32f10x_gpio.o
 .text.GPIO_ReadOutputData
                0x00000000        0x8 ..\obj\stm32f10x_gpio.o
 .text.GPIO_SetBits
                0x00000000        0x4 ..\obj\stm32f10x_gpio.o
 .text.GPIO_ResetBits
                0x00000000        0x4 ..\obj\stm32f10x_gpio.o
 .text.GPIO_Write
                0x00000000        0x4 ..\obj\stm32f10x_gpio.o
 .text.GPIO_PinLockConfig
                0x00000000       0x10 ..\obj\stm32f10x_gpio.o
 .text.GPIO_EventOutputConfig
                0x00000000       0x20 ..\obj\stm32f10x_gpio.o
 .text.GPIO_EventOutputCmd
                0x00000000        0xc ..\obj\stm32f10x_gpio.o
 .text.GPIO_EXTILineConfig
                0x00000000       0x40 ..\obj\stm32f10x_gpio.o
 .text.GPIO_ETH_MediaInterfaceConfig
                0x00000000        0xc ..\obj\stm32f10x_gpio.o
 .text          0x00000000        0x0 ..\obj\main.o
 .data          0x00000000        0x0 ..\obj\main.o
 .bss           0x00000000        0x0 ..\obj\main.o
 .text.Init_IWDG
                0x00000000       0x30 ..\obj\main.o
 .text          0x00000000        0x0 ..\obj\stm32f10x_RS485.o
 .data          0x00000000        0x0 ..\obj\stm32f10x_RS485.o
 .bss           0x00000000        0x0 ..\obj\stm32f10x_RS485.o
 .text.CheckRSTime
                0x00000000        0x4 ..\obj\stm32f10x_RS485.o
 .text          0x00000000        0x0 ..\obj\stm32f10x_rcc.o
 .bss           0x00000000        0x0 ..\obj\stm32f10x_rcc.o
 .text.RCC_DeInit
                0x00000000       0x50 ..\obj\stm32f10x_rcc.o
 .text.RCC_HSEConfig
                0x00000000       0x4c ..\obj\stm32f10x_rcc.o
 .text.RCC_AdjustHSICalibrationValue
                0x00000000       0x18 ..\obj\stm32f10x_rcc.o
 .text.RCC_HSICmd
                0x00000000        0xc ..\obj\stm32f10x_rcc.o
 .text.RCC_PLLConfig
                0x00000000       0x18 ..\obj\stm32f10x_rcc.o
 .text.RCC_PLLCmd
                0x00000000        0xc ..\obj\stm32f10x_rcc.o
 .text.RCC_PREDIV1Config
                0x00000000       0x1c ..\obj\stm32f10x_rcc.o
 .text.RCC_PREDIV2Config
                0x00000000       0x14 ..\obj\stm32f10x_rcc.o
 .text.RCC_PLL2Config
                0x00000000       0x14 ..\obj\stm32f10x_rcc.o
 .text.RCC_PLL2Cmd
                0x00000000        0xc ..\obj\stm32f10x_rcc.o
 .text.RCC_PLL3Config
                0x00000000       0x14 ..\obj\stm32f10x_rcc.o
 .text.RCC_PLL3Cmd
                0x00000000        0xc ..\obj\stm32f10x_rcc.o
 .text.RCC_SYSCLKConfig
                0x00000000       0x14 ..\obj\stm32f10x_rcc.o
 .text.RCC_GetSYSCLKSource
                0x00000000       0x10 ..\obj\stm32f10x_rcc.o
 .text.RCC_HCLKConfig
                0x00000000       0x14 ..\obj\stm32f10x_rcc.o
 .text.RCC_PCLK1Config
                0x00000000       0x14 ..\obj\stm32f10x_rcc.o
 .text.RCC_PCLK2Config
                0x00000000       0x18 ..\obj\stm32f10x_rcc.o
 .text.RCC_ITConfig
                0x00000000       0x24 ..\obj\stm32f10x_rcc.o
 .text.RCC_OTGFSCLKConfig
                0x00000000        0xc ..\obj\stm32f10x_rcc.o
 .text.RCC_ADCCLKConfig
                0x00000000       0x14 ..\obj\stm32f10x_rcc.o
 .text.RCC_I2S2CLKConfig
                0x00000000        0xc ..\obj\stm32f10x_rcc.o
 .text.RCC_I2S3CLKConfig
                0x00000000        0xc ..\obj\stm32f10x_rcc.o
 .text.RCC_LSEConfig
                0x00000000       0x3c ..\obj\stm32f10x_rcc.o
 .text.RCC_LSICmd
                0x00000000        0xc ..\obj\stm32f10x_rcc.o
 .text.RCC_RTCCLKConfig
                0x00000000       0x10 ..\obj\stm32f10x_rcc.o
 .text.RCC_RTCCLKCmd
                0x00000000        0xc ..\obj\stm32f10x_rcc.o
 .text.RCC_AHBPeriphClockCmd
                0x00000000       0x24 ..\obj\stm32f10x_rcc.o
 .text.RCC_AHBPeriphResetCmd
                0x00000000       0x24 ..\obj\stm32f10x_rcc.o
 .text.RCC_APB2PeriphResetCmd
                0x00000000       0x24 ..\obj\stm32f10x_rcc.o
 .text.RCC_APB1PeriphResetCmd
                0x00000000       0x24 ..\obj\stm32f10x_rcc.o
 .text.RCC_BackupResetCmd
                0x00000000        0xc ..\obj\stm32f10x_rcc.o
 .text.RCC_ClockSecuritySystemCmd
                0x00000000        0xc ..\obj\stm32f10x_rcc.o
 .text.RCC_MCOConfig
                0x00000000        0xc ..\obj\stm32f10x_rcc.o
 .text.RCC_GetFlagStatus
                0x00000000       0x34 ..\obj\stm32f10x_rcc.o
 .text.RCC_WaitForHSEStartUp
                0x00000000       0x3c ..\obj\stm32f10x_rcc.o
 .text.RCC_ClearFlag
                0x00000000       0x14 ..\obj\stm32f10x_rcc.o
 .text.RCC_GetITStatus
                0x00000000       0x14 ..\obj\stm32f10x_rcc.o
 .text.RCC_ClearITPendingBit
                0x00000000        0xc ..\obj\stm32f10x_rcc.o
 .text          0x00000000        0x0 ..\obj\startup_stm32f10x_cl.o
 .data          0x00000000        0x0 ..\obj\startup_stm32f10x_cl.o
 .bss           0x00000000        0x0 ..\obj\startup_stm32f10x_cl.o
 .text          0x00000000        0x0 ..\obj\stm32f10x_exti.o
 .data          0x00000000        0x0 ..\obj\stm32f10x_exti.o
 .bss           0x00000000        0x0 ..\obj\stm32f10x_exti.o
 .text.EXTI_DeInit
                0x00000000       0x20 ..\obj\stm32f10x_exti.o
 .text.EXTI_Init
                0x00000000       0x94 ..\obj\stm32f10x_exti.o
 .text.EXTI_StructInit
                0x00000000       0x14 ..\obj\stm32f10x_exti.o
 .text.EXTI_GenerateSWInterrupt
                0x00000000       0x10 ..\obj\stm32f10x_exti.o
 .text.EXTI_GetFlagStatus
                0x00000000       0x14 ..\obj\stm32f10x_exti.o
 .text.EXTI_ClearFlag
                0x00000000        0xc ..\obj\stm32f10x_exti.o
 .text.EXTI_GetITStatus
                0x00000000       0x20 ..\obj\stm32f10x_exti.o
 .text.EXTI_ClearITPendingBit
                0x00000000        0xc ..\obj\stm32f10x_exti.o
 .text          0x00000000        0x0 ..\obj\stm32f10x_usart.o
 .data          0x00000000        0x0 ..\obj\stm32f10x_usart.o
 .bss           0x00000000        0x0 ..\obj\stm32f10x_usart.o
 .text.USART_DeInit
                0x00000000       0xc0 ..\obj\stm32f10x_usart.o
 .text.USART_StructInit
                0x00000000       0x1c ..\obj\stm32f10x_usart.o
 .text.USART_ClockInit
                0x00000000       0x28 ..\obj\stm32f10x_usart.o
 .text.USART_ClockStructInit
                0x00000000       0x10 ..\obj\stm32f10x_usart.o
 .text.USART_DMACmd
                0x00000000       0x18 ..\obj\stm32f10x_usart.o
 .text.USART_SetAddress
                0x00000000       0x1c ..\obj\stm32f10x_usart.o
 .text.USART_WakeUpConfig
                0x00000000       0x1c ..\obj\stm32f10x_usart.o
 .text.USART_ReceiverWakeUpCmd
                0x00000000       0x20 ..\obj\stm32f10x_usart.o
 .text.USART_LINBreakDetectLengthConfig
                0x00000000       0x1c ..\obj\stm32f10x_usart.o
 .text.USART_LINCmd
                0x00000000       0x20 ..\obj\stm32f10x_usart.o
 .text.USART_SendBreak
                0x00000000        0xc ..\obj\stm32f10x_usart.o
 .text.USART_SetGuardTime
                0x00000000       0x14 ..\obj\stm32f10x_usart.o
 .text.USART_SetPrescaler
                0x00000000       0x14 ..\obj\stm32f10x_usart.o
 .text.USART_SmartCardCmd
                0x00000000       0x20 ..\obj\stm32f10x_usart.o
 .text.USART_SmartCardNACKCmd
                0x00000000       0x20 ..\obj\stm32f10x_usart.o
 .text.USART_HalfDuplexCmd
                0x00000000       0x20 ..\obj\stm32f10x_usart.o
 .text.USART_OverSampling8Cmd
                0x00000000       0x20 ..\obj\stm32f10x_usart.o
 .text.USART_OneBitMethodCmd
                0x00000000       0x20 ..\obj\stm32f10x_usart.o
 .text.USART_IrDAConfig
                0x00000000       0x1c ..\obj\stm32f10x_usart.o
 .text.USART_IrDACmd
                0x00000000       0x20 ..\obj\stm32f10x_usart.o
 .text.USART_GetFlagStatus
                0x00000000        0xc ..\obj\stm32f10x_usart.o
 .text.USART_ClearFlag
                0x00000000        0xc ..\obj\stm32f10x_usart.o
 .text.USART_GetITStatus
                0x00000000       0x50 ..\obj\stm32f10x_usart.o
 .text          0x00000000        0x0 ..\obj\stm32f10x_RS485Master.o
 .data          0x00000000        0x0 ..\obj\stm32f10x_RS485Master.o
 .bss           0x00000000        0x0 ..\obj\stm32f10x_RS485Master.o
 .text.CpyBuf   0x00000000       0x20 ..\obj\stm32f10x_RS485Master.o
 .text.NoSameBuf
                0x00000000       0x44 ..\obj\stm32f10x_RS485Master.o
 .text.SetActualInfo
                0x00000000      0x11c ..\obj\stm32f10x_RS485Master.o
 .text          0x00000000        0x0 ..\obj\stm32f10x_dma.o
 .data          0x00000000        0x0 ..\obj\stm32f10x_dma.o
 .bss           0x00000000        0x0 ..\obj\stm32f10x_dma.o
 .text.DMA_DeInit
                0x00000000      0x180 ..\obj\stm32f10x_dma.o
 .text.DMA_Init
                0x00000000       0x40 ..\obj\stm32f10x_dma.o
 .text.DMA_StructInit
                0x00000000       0x1c ..\obj\stm32f10x_dma.o
 .text.DMA_Cmd  0x00000000       0x18 ..\obj\stm32f10x_dma.o
 .text.DMA_ITConfig
                0x00000000       0x14 ..\obj\stm32f10x_dma.o
 .text.DMA_SetCurrDataCounter
                0x00000000        0x4 ..\obj\stm32f10x_dma.o
 .text.DMA_GetCurrDataCounter
                0x00000000        0x8 ..\obj\stm32f10x_dma.o
 .text.DMA_GetFlagStatus
                0x00000000       0x1c ..\obj\stm32f10x_dma.o
 .text.DMA_ClearFlag
                0x00000000       0x14 ..\obj\stm32f10x_dma.o
 .text.DMA_GetITStatus
                0x00000000       0x1c ..\obj\stm32f10x_dma.o
 .text.DMA_ClearITPendingBit
                0x00000000       0x14 ..\obj\stm32f10x_dma.o
 .text          0x00000000        0x0 ..\obj\misc.o
 .data          0x00000000        0x0 ..\obj\misc.o
 .bss           0x00000000        0x0 ..\obj\misc.o
 .text.NVIC_PriorityGroupConfig
                0x00000000       0x14 ..\obj\misc.o
 .text.NVIC_SetVectorTable
                0x00000000       0x18 ..\obj\misc.o
 .text.NVIC_SystemLPConfig
                0x00000000       0x24 ..\obj\misc.o
 .text.SysTick_CLKSourceConfig
                0x00000000       0x1c ..\obj\misc.o
 .text          0x00000000        0x0 ..\obj\stm32f10x_i2c.o
 .data          0x00000000        0x0 ..\obj\stm32f10x_i2c.o
 .bss           0x00000000        0x0 ..\obj\stm32f10x_i2c.o
 .text.I2C_DeInit
                0x00000000       0x44 ..\obj\stm32f10x_i2c.o
 .text.I2C_Init
                0x00000000      0x100 ..\obj\stm32f10x_i2c.o
 .text.I2C_StructInit
                0x00000000       0x20 ..\obj\stm32f10x_i2c.o
 .text.I2C_Cmd  0x00000000       0x20 ..\obj\stm32f10x_i2c.o
 .text.I2C_DMACmd
                0x00000000       0x20 ..\obj\stm32f10x_i2c.o
 .text.I2C_DMALastTransferCmd
                0x00000000       0x20 ..\obj\stm32f10x_i2c.o
 .text.I2C_GenerateSTART
                0x00000000       0x20 ..\obj\stm32f10x_i2c.o
 .text.I2C_GenerateSTOP
                0x00000000       0x20 ..\obj\stm32f10x_i2c.o
 .text.I2C_AcknowledgeConfig
                0x00000000       0x20 ..\obj\stm32f10x_i2c.o
 .text.I2C_OwnAddress2Config
                0x00000000       0x18 ..\obj\stm32f10x_i2c.o
 .text.I2C_DualAddressCmd
                0x00000000       0x20 ..\obj\stm32f10x_i2c.o
 .text.I2C_GeneralCallCmd
                0x00000000       0x20 ..\obj\stm32f10x_i2c.o
 .text.I2C_ITConfig
                0x00000000       0x18 ..\obj\stm32f10x_i2c.o
 .text.I2C_SendData
                0x00000000        0x4 ..\obj\stm32f10x_i2c.o
 .text.I2C_ReceiveData
                0x00000000        0x8 ..\obj\stm32f10x_i2c.o
 .text.I2C_Send7bitAddress
                0x00000000       0x10 ..\obj\stm32f10x_i2c.o
 .text.I2C_ReadRegister
                0x00000000       0x1c ..\obj\stm32f10x_i2c.o
 .text.I2C_SoftwareResetCmd
                0x00000000       0x20 ..\obj\stm32f10x_i2c.o
 .text.I2C_NACKPositionConfig
                0x00000000       0x24 ..\obj\stm32f10x_i2c.o
 .text.I2C_SMBusAlertConfig
                0x00000000       0x24 ..\obj\stm32f10x_i2c.o
 .text.I2C_TransmitPEC
                0x00000000       0x20 ..\obj\stm32f10x_i2c.o
 .text.I2C_PECPositionConfig
                0x00000000       0x24 ..\obj\stm32f10x_i2c.o
 .text.I2C_CalculatePEC
                0x00000000       0x20 ..\obj\stm32f10x_i2c.o
 .text.I2C_GetPEC
                0x00000000        0x8 ..\obj\stm32f10x_i2c.o
 .text.I2C_ARPCmd
                0x00000000       0x20 ..\obj\stm32f10x_i2c.o
 .text.I2C_StretchClockCmd
                0x00000000       0x20 ..\obj\stm32f10x_i2c.o
 .text.I2C_FastModeDutyCycleConfig
                0x00000000       0x24 ..\obj\stm32f10x_i2c.o
 .text.I2C_CheckEvent
                0x00000000       0x1c ..\obj\stm32f10x_i2c.o
 .text.I2C_GetLastEvent
                0x00000000       0x10 ..\obj\stm32f10x_i2c.o
 .text.I2C_GetFlagStatus
                0x00000000       0x40 ..\obj\stm32f10x_i2c.o
 .text.I2C_ClearFlag
                0x00000000        0xc ..\obj\stm32f10x_i2c.o
 .text.I2C_GetITStatus
                0x00000000       0x24 ..\obj\stm32f10x_i2c.o
 .text.I2C_ClearITPendingBit
                0x00000000        0xc ..\obj\stm32f10x_i2c.o
 .text          0x00000000        0x0 ..\obj\stm32f10x_bkp.o
 .data          0x00000000        0x0 ..\obj\stm32f10x_bkp.o
 .bss           0x00000000        0x0 ..\obj\stm32f10x_bkp.o
 .text.BKP_DeInit
                0x00000000       0x14 ..\obj\stm32f10x_bkp.o
 .text.BKP_TamperPinLevelConfig
                0x00000000        0xc ..\obj\stm32f10x_bkp.o
 .text.BKP_TamperPinCmd
                0x00000000        0xc ..\obj\stm32f10x_bkp.o
 .text.BKP_ITConfig
                0x00000000        0xc ..\obj\stm32f10x_bkp.o
 .text.BKP_RTCOutputConfig
                0x00000000       0x1c ..\obj\stm32f10x_bkp.o
 .text.BKP_SetRTCCalibrationValue
                0x00000000       0x1c ..\obj\stm32f10x_bkp.o
 .text.BKP_WriteBackupRegister
                0x00000000       0x20 ..\obj\stm32f10x_bkp.o
 .text.BKP_ReadBackupRegister
                0x00000000       0x24 ..\obj\stm32f10x_bkp.o
 .text.BKP_GetFlagStatus
                0x00000000       0x10 ..\obj\stm32f10x_bkp.o
 .text.BKP_ClearFlag
                0x00000000       0x14 ..\obj\stm32f10x_bkp.o
 .text.BKP_GetITStatus
                0x00000000       0x10 ..\obj\stm32f10x_bkp.o
 .text.BKP_ClearITPendingBit
                0x00000000       0x14 ..\obj\stm32f10x_bkp.o
 .text          0x00000000        0x0 ..\obj\stm32f10x_iwdg.o
 .data          0x00000000        0x0 ..\obj\stm32f10x_iwdg.o
 .bss           0x00000000        0x0 ..\obj\stm32f10x_iwdg.o
 .text.IWDG_WriteAccessCmd
                0x00000000        0xc ..\obj\stm32f10x_iwdg.o
 .text.IWDG_SetPrescaler
                0x00000000        0xc ..\obj\stm32f10x_iwdg.o
 .text.IWDG_SetReload
                0x00000000        0xc ..\obj\stm32f10x_iwdg.o
 .text.IWDG_Enable
                0x00000000       0x10 ..\obj\stm32f10x_iwdg.o
 .text.IWDG_GetFlagStatus
                0x00000000       0x14 ..\obj\stm32f10x_iwdg.o

Memory Configuration

Name             Origin             Length             Attributes
rom              0x08000000         0x00040000         xr
ram              0x20000000         0x00010000         xrw
*default*        0x00000000         0xffffffff

Linker script and memory map

                0x20010000                _eram = 0x20010000

.text           0x08000000     0x17d0
 *(.isr_vector .isr_vector.*)
 .isr_vector    0x08000000      0x154 ..\obj\startup_stm32f10x_cl.o
                0x08000000                g_pfnVectors
 *(.text .text.* .gnu.linkonce.t.*)
 .text.SystemInit
                0x08000154      0x174 ..\obj\system_stm32f10x.o
                0x08000154                SystemInit
 .text.GPIO_Init
                0x080002c8       0xc0 ..\obj\stm32f10x_gpio.o
                0x080002c8                GPIO_Init
 .text.GPIO_WriteBit
                0x08000388        0xc ..\obj\stm32f10x_gpio.o
                0x08000388                GPIO_WriteBit
 .text.GPIO_PinRemapConfig
                0x08000394       0x88 ..\obj\stm32f10x_gpio.o
                0x08000394                GPIO_PinRemapConfig
 .text.Control_Init
                0x0800041c       0x68 ..\obj\main.o
                0x0800041c                Control_Init
 .text.Port_Init
                0x08000484       0x64 ..\obj\main.o
                0x08000484                Port_Init
 .text.Addr_Init
                0x080004e8       0x30 ..\obj\main.o
                0x080004e8                Addr_Init
 .text.SetRegOut
                0x08000518       0x50 ..\obj\main.o
                0x08000518                SetRegOut
 .text.SetOutBit
                0x08000568       0xf0 ..\obj\main.o
                0x08000568                SetOutBit
 .text.DoIt     0x08000658       0x24 ..\obj\main.o
                0x08000658                DoIt
 .text.InitMainTimer
                0x0800067c       0x5c ..\obj\main.o
                0x0800067c                InitMainTimer
 .text.TIM2_IRQHandler
                0x080006d8       0xa8 ..\obj\main.o
                0x080006d8                TIM2_IRQHandler
 .text.Check_IWDG
                0x08000780       0x14 ..\obj\main.o
                0x08000780                Check_IWDG
 .text.Init_STM32
                0x08000794       0x74 ..\obj\main.o
                0x08000794                Init_STM32
 .text.main     0x08000808        0xc ..\obj\main.o
                0x08000808                main
 .text.USART1_IRQHandler
                0x08000814      0x414 ..\obj\stm32f10x_RS485.o
                0x08000814                USART1_IRQHandler
 .text.USART_PC_Configuration
                0x08000c28      0x124 ..\obj\stm32f10x_RS485.o
                0x08000c28                USART_PC_Configuration
 .text.RCC_GetClocksFreq
                0x08000d4c      0x124 ..\obj\stm32f10x_rcc.o
                0x08000d4c                RCC_GetClocksFreq
 .text.RCC_APB2PeriphClockCmd
                0x08000e70       0x24 ..\obj\stm32f10x_rcc.o
                0x08000e70                RCC_APB2PeriphClockCmd
 .text.RCC_APB1PeriphClockCmd
                0x08000e94       0x24 ..\obj\stm32f10x_rcc.o
                0x08000e94                RCC_APB1PeriphClockCmd
 .text.Default_Reset_Handler
                0x08000eb8       0x5c ..\obj\startup_stm32f10x_cl.o
                0x08000eb8                Default_Reset_Handler
                0x08000eb8                Reset_Handler
 .text.Default_Handler
                0x08000f14        0x4 ..\obj\startup_stm32f10x_cl.o
                0x08000f14                EXTI2_IRQHandler
                0x08000f14                DebugMon_Handler
                0x08000f14                TIM1_CC_IRQHandler
                0x08000f14                HardFault_Handler
                0x08000f14                TIM6_IRQHandler
                0x08000f14                SysTick_Handler
                0x08000f14                PVD_IRQHandler
                0x08000f14                PendSV_Handler
                0x08000f14                NMI_Handler
                0x08000f14                CAN2_RX1_IRQHandler
                0x08000f14                EXTI3_IRQHandler
                0x08000f14                EXTI0_IRQHandler
                0x08000f14                I2C2_EV_IRQHandler
                0x08000f14                CAN1_RX0_IRQHandler
                0x08000f14                UsageFault_Handler
                0x08000f14                CAN2_SCE_IRQHandler
                0x08000f14                ADC1_2_IRQHandler
                0x08000f14                SPI1_IRQHandler
                0x08000f14                TAMPER_IRQHandler
                0x08000f14                CAN2_RX0_IRQHandler
                0x08000f14                DMA2_Channel2_IRQHandler
                0x08000f14                DMA1_Channel4_IRQHandler
                0x08000f14                RTC_IRQHandler
                0x08000f14                DMA1_Channel7_IRQHandler
                0x08000f14                CAN1_RX1_IRQHandler
                0x08000f14                UART5_IRQHandler
                0x08000f14                TIM4_IRQHandler
                0x08000f14                DMA2_Channel1_IRQHandler
                0x08000f14                I2C1_EV_IRQHandler
                0x08000f14                DMA1_Channel6_IRQHandler
                0x08000f14                UART4_IRQHandler
                0x08000f14                DMA2_Channel4_IRQHandler
                0x08000f14                TIM3_IRQHandler
                0x08000f14                RCC_IRQHandler
                0x08000f14                TIM1_TRG_COM_IRQHandler
                0x08000f14                DMA1_Channel1_IRQHandler
                0x08000f14                EXTI15_10_IRQHandler
                0x08000f14                TIM7_IRQHandler
                0x08000f14                CAN2_TX_IRQHandler
                0x08000f14                TIM5_IRQHandler
                0x08000f14                EXTI9_5_IRQHandler
                0x08000f14                ETH_WKUP_IRQHandler
                0x08000f14                SPI2_IRQHandler
                0x08000f14                MemManage_Handler
                0x08000f14                CAN1_TX_IRQHandler
                0x08000f14                SVC_Handler
                0x08000f14                DMA2_Channel5_IRQHandler
                0x08000f14                DMA1_Channel5_IRQHandler
                0x08000f14                EXTI4_IRQHandler
                0x08000f14                DMA1_Channel3_IRQHandler
                0x08000f14                ETH_IRQHandler
                0x08000f14                TIM1_UP_IRQHandler
                0x08000f14                WWDG_IRQHandler
                0x08000f14                OTG_FS_WKUP_IRQHandler
                0x08000f14                TIM1_BRK_IRQHandler
                0x08000f14                EXTI1_IRQHandler
                0x08000f14                RTCAlarm_IRQHandler
                0x08000f14                USART2_IRQHandler
                0x08000f14                I2C2_ER_IRQHandler
                0x08000f14                DMA1_Channel2_IRQHandler
                0x08000f14                CAN1_SCE_IRQHandler
                0x08000f14                FLASH_IRQHandler
                0x08000f14                BusFault_Handler
                0x08000f14                OTG_FS_IRQHandler
                0x08000f14                SPI3_IRQHandler
                0x08000f14                I2C1_ER_IRQHandler
                0x08000f14                DMA2_Channel3_IRQHandler
 .text.USART_Init
                0x08000f18       0xf8 ..\obj\stm32f10x_usart.o
                0x08000f18                USART_Init
 .text.USART_Cmd
                0x08001010       0x20 ..\obj\stm32f10x_usart.o
                0x08001010                USART_Cmd
 .text.USART_ITConfig
                0x08001030       0x3c ..\obj\stm32f10x_usart.o
                0x08001030                USART_ITConfig
 .text.USART_SendData
                0x0800106c        0xc ..\obj\stm32f10x_usart.o
                0x0800106c                USART_SendData
 .text.USART_ReceiveData
                0x08001078        0xc ..\obj\stm32f10x_usart.o
                0x08001078                USART_ReceiveData
 .text.USART_ClearITPendingBit
                0x08001084       0x18 ..\obj\stm32f10x_usart.o
                0x08001084                USART_ClearITPendingBit
 .text.CRCCalc  0x0800109c       0x44 ..\obj\stm32f10x_RS485Master.o
                0x0800109c                CRCCalc
 .text.USART_OUT_Configuration
                0x080010e0      0x108 ..\obj\stm32f10x_RS485Master.o
                0x080010e0                USART_OUT_Configuration
 .text.USART3_IRQHandler
                0x080011e8      0x214 ..\obj\stm32f10x_RS485Master.o
                0x080011e8                USART3_IRQHandler
 .text.RS485_Master_SendData
                0x080013fc      0x11c ..\obj\stm32f10x_RS485Master.o
                0x080013fc                RS485_Master_SendData
 .text.SendFans
                0x08001518      0x224 ..\obj\stm32f10x_RS485Master.o
                0x08001518                SendFans
 .text.NVIC_Init
                0x0800173c       0x84 ..\obj\misc.o
                0x0800173c                NVIC_Init
 .text.IWDG_ReloadCounter
                0x080017c0       0x10 ..\obj\stm32f10x_iwdg.o
                0x080017c0                IWDG_ReloadCounter
 *(.glue_7t)
 .glue_7t       0x00000000        0x0 linker stubs
 *(.glue_7)
 .glue_7        0x00000000        0x0 linker stubs
 *(.rodata .rodata* .gnu.linkonce.r.*)

.vfp11_veneer   0x080017d0        0x0
 .vfp11_veneer  0x00000000        0x0 linker stubs

.v4_bx          0x080017d0        0x0
 .v4_bx         0x00000000        0x0 linker stubs

.ARM.extab
 *(.ARM.extab* .gnu.linkonce.armextab.*)
                0x080017d0                __exidx_start = .

.ARM.exidx
 *(.ARM.exidx* .gnu.linkonce.armexidx.*)
                0x080017d0                __exidx_end = .
                0x080017d0                . = ALIGN (0x4)
                0x080017d0                _etext = .
                0x080017d0                _sidata = .

.data           0x20000000       0x14 load address 0x080017d0
                0x20000000                _sdata = .
 *(.data .data.*)
 .data          0x20000000       0x14 ..\obj\stm32f10x_rcc.o
                0x20000014                . = ALIGN (0x4)
                0x20000014                _edata = .

.bss            0x20000014     0x5a90 load address 0x080017e4
                0x20000014                _sbss = .
 *(.bss .bss.*)
 *(COMMON)
 COMMON         0x20000014     0x186c ..\obj\main.o
                0x20000014                SetSpeed
                0x20000018                Pause
                0x20000030                Work
                0x20000048                GD
                0x20001838                nReset
                0x2000183a                NumBlock
                0x2000183c                AdrGD
                0x2000187c                IWDG_Reset
 COMMON         0x20001880       0x33 ..\obj\stm32f10x_RS485.o
                0x20001880                chSumUART
                0x20001884                pSostRS485
                0x20001888                RSTime
                0x2000188c                pNumBlock
                0x20001890                pADRGD
                0x20001894                ptrUART
                0x20001898                fSendByte
                0x2000189c                pNFCtr
                0x200018a0                Head
                0x200018ac                pDataRS
                0x200018b0                fAdrSend
                0x200018b2                PHASE_RS
 *fill*         0x200018b3        0x1 00
 COMMON         0x200018b4     0x41ed ..\obj\stm32f10x_RS485Master.o
                0x200018b4                ReadBuf
                0x20001c9c                GLF
                0x20001ca0                StatusByte
                0x20001ca2                bOutIPCBlock
                0x20001ca3                cModule
                0x20001ca4                pDataRSOUT
                0x20001ca8                PHASE_RS_OUT
                0x20001caa                fanCycle
                0x20001cac                RSOutTime
                0x20001cb0                ModulData
                0x20005a74                FanBlock
                0x20005a78                FanBroadcast
                0x20005a86                fanCmd
                0x20005a88                HeadOUT
                0x20005a94                ptrUARTOUT
                0x20005a98                cOperInModule
                0x20005a99                cCycle
                0x20005a9c                GLFanData
                0x20005aa0                chSumUARTOUT
                0x20005aa4                . = ALIGN (0x4)
 *fill*         0x20005aa1        0x3 00
                0x20005aa4                _ebss = .

.co_stack       0x20005aa4      0x404 load address 0x08007274
                0x20005aa8                . = ALIGN (0x8)
 *fill*         0x20005aa4        0x4 00
 *(.co_stack .co_stack.*)
 .co_stack      0x20005aa8      0x400 ..\obj\startup_stm32f10x_cl.o
                0x20005aa8                pulStack
                0x20005ea8                . = ALIGN (0x4)
                0x20005ea8                _end = .
LOAD ..\obj\stm32f10x_rtc.o
LOAD ..\obj\stm32f10x_tim.o
LOAD ..\obj\core_cm3.o
LOAD ..\obj\system_stm32f10x.o
LOAD ..\obj\stm32f10x_pwr.o
LOAD ..\obj\stm32f10x_gpio.o
LOAD ..\obj\main.o
LOAD ..\obj\stm32f10x_RS485.o
LOAD ..\obj\stm32f10x_rcc.o
LOAD ..\obj\startup_stm32f10x_cl.o
LOAD ..\obj\stm32f10x_exti.o
LOAD ..\obj\stm32f10x_usart.o
LOAD ..\obj\stm32f10x_RS485Master.o
LOAD ..\obj\stm32f10x_dma.o
LOAD ..\obj\misc.o
LOAD ..\obj\stm32f10x_i2c.o
LOAD ..\obj\stm32f10x_bkp.o
LOAD ..\obj\stm32f10x_iwdg.o
START GROUP
LOAD c:/program files (x86)/arm-none-eabi-gcc-4_6/bin/../lib/gcc/arm-none-eabi/4.6.2/armv7-m\libgcc.a
LOAD c:/program files (x86)/arm-none-eabi-gcc-4_6/bin/../lib/gcc/arm-none-eabi/4.6.2/../../../../arm-none-eabi/lib/armv7-m\libg.a
LOAD c:/program files (x86)/arm-none-eabi-gcc-4_6/bin/../lib/gcc/arm-none-eabi/4.6.2/../../../../arm-none-eabi/lib/armv7-m\libc.a
END GROUP
OUTPUT(Gefest.elf elf32-littlearm)

.debug_info     0x00000000     0x9399
 .debug_info    0x00000000      0x46a ..\obj\stm32f10x_rtc.o
 .debug_info    0x0000046a     0x1e32 ..\obj\stm32f10x_tim.o
 .debug_info    0x0000229c      0x54b ..\obj\core_cm3.o
 .debug_info    0x000027e7      0x528 ..\obj\system_stm32f10x.o
 .debug_info    0x00002d0f      0x472 ..\obj\stm32f10x_pwr.o
 .debug_info    0x00003181      0x719 ..\obj\stm32f10x_gpio.o
 .debug_info    0x0000389a      0xcaa ..\obj\main.o
 .debug_info    0x00004544      0x7d3 ..\obj\stm32f10x_RS485.o
 .debug_info    0x00004d17      0xb1e ..\obj\stm32f10x_rcc.o
 .debug_info    0x00005835      0x12e ..\obj\startup_stm32f10x_cl.o
 .debug_info    0x00005963      0x35d ..\obj\stm32f10x_exti.o
 .debug_info    0x00005cc0      0xa54 ..\obj\stm32f10x_usart.o
 .debug_info    0x00006714      0xcd3 ..\obj\stm32f10x_RS485Master.o
 .debug_info    0x000073e7      0x495 ..\obj\stm32f10x_dma.o
 .debug_info    0x0000787c      0x548 ..\obj\misc.o
 .debug_info    0x00007dc4      0xb6c ..\obj\stm32f10x_i2c.o
 .debug_info    0x00008930      0x870 ..\obj\stm32f10x_bkp.o
 .debug_info    0x000091a0      0x1f9 ..\obj\stm32f10x_iwdg.o

.debug_abbrev   0x00000000     0x1ce4
 .debug_abbrev  0x00000000      0x18c ..\obj\stm32f10x_rtc.o
 .debug_abbrev  0x0000018c      0x23a ..\obj\stm32f10x_tim.o
 .debug_abbrev  0x000003c6       0xb4 ..\obj\core_cm3.o
 .debug_abbrev  0x0000047a      0x1a6 ..\obj\system_stm32f10x.o
 .debug_abbrev  0x00000620      0x19e ..\obj\stm32f10x_pwr.o
 .debug_abbrev  0x000007be      0x1d9 ..\obj\stm32f10x_gpio.o
 .debug_abbrev  0x00000997      0x266 ..\obj\main.o
 .debug_abbrev  0x00000bfd      0x19c ..\obj\stm32f10x_RS485.o
 .debug_abbrev  0x00000d99      0x1d0 ..\obj\stm32f10x_rcc.o
 .debug_abbrev  0x00000f69       0xb0 ..\obj\startup_stm32f10x_cl.o
 .debug_abbrev  0x00001019      0x170 ..\obj\stm32f10x_exti.o
 .debug_abbrev  0x00001189      0x1b8 ..\obj\stm32f10x_usart.o
 .debug_abbrev  0x00001341      0x2bb ..\obj\stm32f10x_RS485Master.o
 .debug_abbrev  0x000015fc      0x174 ..\obj\stm32f10x_dma.o
 .debug_abbrev  0x00001770      0x15b ..\obj\misc.o
 .debug_abbrev  0x000018cb      0x194 ..\obj\stm32f10x_i2c.o
 .debug_abbrev  0x00001a5f      0x17c ..\obj\stm32f10x_bkp.o
 .debug_abbrev  0x00001bdb      0x109 ..\obj\stm32f10x_iwdg.o

.debug_loc      0x00000000     0x4389
 .debug_loc     0x00000000      0x1ee ..\obj\stm32f10x_rtc.o
 .debug_loc     0x000001ee     0x1598 ..\obj\stm32f10x_tim.o
 .debug_loc     0x00001786      0x2ae ..\obj\core_cm3.o
 .debug_loc     0x00001a34      0x265 ..\obj\system_stm32f10x.o
 .debug_loc     0x00001c99       0xe6 ..\obj\stm32f10x_pwr.o
 .debug_loc     0x00001d7f      0x444 ..\obj\stm32f10x_gpio.o
 .debug_loc     0x000021c3      0x262 ..\obj\main.o
 .debug_loc     0x00002425      0x17c ..\obj\stm32f10x_RS485.o
 .debug_loc     0x000025a1      0x7b5 ..\obj\stm32f10x_rcc.o
 .debug_loc     0x00002d56       0x33 ..\obj\startup_stm32f10x_cl.o
 .debug_loc     0x00002d89      0x174 ..\obj\stm32f10x_exti.o
 .debug_loc     0x00002efd      0x66b ..\obj\stm32f10x_usart.o
 .debug_loc     0x00003568      0x3f5 ..\obj\stm32f10x_RS485Master.o
 .debug_loc     0x0000395d      0x142 ..\obj\stm32f10x_dma.o
 .debug_loc     0x00003a9f      0x143 ..\obj\misc.o
 .debug_loc     0x00003be2      0x646 ..\obj\stm32f10x_i2c.o
 .debug_loc     0x00004228      0x124 ..\obj\stm32f10x_bkp.o
 .debug_loc     0x0000434c       0x3d ..\obj\stm32f10x_iwdg.o

.debug_aranges  0x00000000      0xbd0
 .debug_aranges
                0x00000000       0x88 ..\obj\stm32f10x_rtc.o
 .debug_aranges
                0x00000088      0x2e0 ..\obj\stm32f10x_tim.o
 .debug_aranges
                0x00000368       0xc8 ..\obj\core_cm3.o
 .debug_aranges
                0x00000430       0x28 ..\obj\system_stm32f10x.o
 .debug_aranges
                0x00000458       0x60 ..\obj\stm32f10x_pwr.o
 .debug_aranges
                0x000004b8       0xa8 ..\obj\stm32f10x_gpio.o
 .debug_aranges
                0x00000560       0x78 ..\obj\main.o
 .debug_aranges
                0x000005d8       0x30 ..\obj\stm32f10x_RS485.o
 .debug_aranges
                0x00000608      0x160 ..\obj\stm32f10x_rcc.o
 .debug_aranges
                0x00000768       0x28 ..\obj\startup_stm32f10x_cl.o
 .debug_aranges
                0x00000790       0x58 ..\obj\stm32f10x_exti.o
 .debug_aranges
                0x000007e8      0x100 ..\obj\stm32f10x_usart.o
 .debug_aranges
                0x000008e8       0x58 ..\obj\stm32f10x_RS485Master.o
 .debug_aranges
                0x00000940       0x70 ..\obj\stm32f10x_dma.o
 .debug_aranges
                0x000009b0       0x40 ..\obj\misc.o
 .debug_aranges
                0x000009f0      0x120 ..\obj\stm32f10x_i2c.o
 .debug_aranges
                0x00000b10       0x78 ..\obj\stm32f10x_bkp.o
 .debug_aranges
                0x00000b88       0x48 ..\obj\stm32f10x_iwdg.o

.debug_ranges   0x00000000      0xab0
 .debug_ranges  0x00000000       0x78 ..\obj\stm32f10x_rtc.o
 .debug_ranges  0x00000078      0x2d0 ..\obj\stm32f10x_tim.o
 .debug_ranges  0x00000348       0xb8 ..\obj\core_cm3.o
 .debug_ranges  0x00000400       0x18 ..\obj\system_stm32f10x.o
 .debug_ranges  0x00000418       0x50 ..\obj\stm32f10x_pwr.o
 .debug_ranges  0x00000468       0x98 ..\obj\stm32f10x_gpio.o
 .debug_ranges  0x00000500       0x68 ..\obj\main.o
 .debug_ranges  0x00000568       0x20 ..\obj\stm32f10x_RS485.o
 .debug_ranges  0x00000588      0x150 ..\obj\stm32f10x_rcc.o
 .debug_ranges  0x000006d8       0x18 ..\obj\startup_stm32f10x_cl.o
 .debug_ranges  0x000006f0       0x48 ..\obj\stm32f10x_exti.o
 .debug_ranges  0x00000738       0xf0 ..\obj\stm32f10x_usart.o
 .debug_ranges  0x00000828       0x48 ..\obj\stm32f10x_RS485Master.o
 .debug_ranges  0x00000870       0x60 ..\obj\stm32f10x_dma.o
 .debug_ranges  0x000008d0       0x30 ..\obj\misc.o
 .debug_ranges  0x00000900      0x110 ..\obj\stm32f10x_i2c.o
 .debug_ranges  0x00000a10       0x68 ..\obj\stm32f10x_bkp.o
 .debug_ranges  0x00000a78       0x38 ..\obj\stm32f10x_iwdg.o

.debug_line     0x00000000     0x37fc
 .debug_line    0x00000000      0x26f ..\obj\stm32f10x_rtc.o
 .debug_line    0x0000026f      0x9c1 ..\obj\stm32f10x_tim.o
 .debug_line    0x00000c30      0x264 ..\obj\core_cm3.o
 .debug_line    0x00000e94      0x1d1 ..\obj\system_stm32f10x.o
 .debug_line    0x00001065      0x212 ..\obj\stm32f10x_pwr.o
 .debug_line    0x00001277      0x347 ..\obj\stm32f10x_gpio.o
 .debug_line    0x000015be      0x3a0 ..\obj\main.o
 .debug_line    0x0000195e      0x257 ..\obj\stm32f10x_RS485.o
 .debug_line    0x00001bb5      0x4f2 ..\obj\stm32f10x_rcc.o
 .debug_line    0x000020a7       0x94 ..\obj\startup_stm32f10x_cl.o
 .debug_line    0x0000213b      0x245 ..\obj\stm32f10x_exti.o
 .debug_line    0x00002380      0x429 ..\obj\stm32f10x_usart.o
 .debug_line    0x000027a9      0x392 ..\obj\stm32f10x_RS485Master.o
 .debug_line    0x00002b3b      0x292 ..\obj\stm32f10x_dma.o
 .debug_line    0x00002dcd      0x1e3 ..\obj\misc.o
 .debug_line    0x00002fb0      0x462 ..\obj\stm32f10x_i2c.o
 .debug_line    0x00003412      0x230 ..\obj\stm32f10x_bkp.o
 .debug_line    0x00003642      0x1ba ..\obj\stm32f10x_iwdg.o

.debug_str      0x00000000     0x35e8
 .debug_str     0x00000000      0x2ea ..\obj\stm32f10x_rtc.o
                                0x338 (size before relaxing)
 .debug_str     0x000002ea      0xb7c ..\obj\stm32f10x_tim.o
                                0xd73 (size before relaxing)
 .debug_str     0x00000e66      0x16b ..\obj\core_cm3.o
                                0x262 (size before relaxing)
 .debug_str     0x00000fd1      0x1a9 ..\obj\system_stm32f10x.o
                                0x2b6 (size before relaxing)
 .debug_str     0x0000117a      0x123 ..\obj\stm32f10x_pwr.o
                                0x2a8 (size before relaxing)
 .debug_str     0x0000129d      0x373 ..\obj\stm32f10x_gpio.o
                                0x4af (size before relaxing)
 .debug_str     0x00001610      0x5d1 ..\obj\main.o
                                0xa01 (size before relaxing)
 .debug_str     0x00001be1      0x19a ..\obj\stm32f10x_RS485.o
                                0x87a (size before relaxing)
 .debug_str     0x00001d7b      0x4eb ..\obj\stm32f10x_rcc.o
                                0x6f8 (size before relaxing)
 .debug_str     0x00002266       0xac ..\obj\startup_stm32f10x_cl.o
                                0x114 (size before relaxing)
 .debug_str     0x00002312      0x1ce ..\obj\stm32f10x_exti.o
                                0x2f4 (size before relaxing)
 .debug_str     0x000024e0      0x3a5 ..\obj\stm32f10x_usart.o
                                0x626 (size before relaxing)
 .debug_str     0x00002885      0x23e ..\obj\stm32f10x_RS485Master.o
                                0xa68 (size before relaxing)
 .debug_str     0x00002ac3      0x218 ..\obj\stm32f10x_dma.o
                                0x357 (size before relaxing)
 .debug_str     0x00002cdb      0x155 ..\obj\misc.o
                                0x359 (size before relaxing)
 .debug_str     0x00002e30      0x3b6 ..\obj\stm32f10x_i2c.o
                                0x5fc (size before relaxing)
 .debug_str     0x000031e6      0x326 ..\obj\stm32f10x_bkp.o
                                0x54b (size before relaxing)
 .debug_str     0x0000350c       0xdc ..\obj\stm32f10x_iwdg.o
                                0x1f2 (size before relaxing)

.comment        0x00000000       0x70
 .comment       0x00000000       0x70 ..\obj\stm32f10x_rtc.o
                                 0x71 (size before relaxing)
 .comment       0x00000000       0x71 ..\obj\stm32f10x_tim.o
 .comment       0x00000000       0x71 ..\obj\core_cm3.o
 .comment       0x00000000       0x71 ..\obj\system_stm32f10x.o
 .comment       0x00000000       0x71 ..\obj\stm32f10x_pwr.o
 .comment       0x00000000       0x71 ..\obj\stm32f10x_gpio.o
 .comment       0x00000000       0x71 ..\obj\main.o
 .comment       0x00000000       0x71 ..\obj\stm32f10x_RS485.o
 .comment       0x00000000       0x71 ..\obj\stm32f10x_rcc.o
 .comment       0x00000000       0x71 ..\obj\startup_stm32f10x_cl.o
 .comment       0x00000000       0x71 ..\obj\stm32f10x_exti.o
 .comment       0x00000000       0x71 ..\obj\stm32f10x_usart.o
 .comment       0x00000000       0x71 ..\obj\stm32f10x_RS485Master.o
 .comment       0x00000000       0x71 ..\obj\stm32f10x_dma.o
 .comment       0x00000000       0x71 ..\obj\misc.o
 .comment       0x00000000       0x71 ..\obj\stm32f10x_i2c.o
 .comment       0x00000000       0x71 ..\obj\stm32f10x_bkp.o
 .comment       0x00000000       0x71 ..\obj\stm32f10x_iwdg.o

.ARM.attributes
                0x00000000       0x33
 .ARM.attributes
                0x00000000       0x33 ..\obj\stm32f10x_rtc.o
 .ARM.attributes
                0x00000033       0x33 ..\obj\stm32f10x_tim.o
 .ARM.attributes
                0x00000066       0x33 ..\obj\core_cm3.o
 .ARM.attributes
                0x00000099       0x33 ..\obj\system_stm32f10x.o
 .ARM.attributes
                0x000000cc       0x33 ..\obj\stm32f10x_pwr.o
 .ARM.attributes
                0x000000ff       0x33 ..\obj\stm32f10x_gpio.o
 .ARM.attributes
                0x00000132       0x33 ..\obj\main.o
 .ARM.attributes
                0x00000165       0x33 ..\obj\stm32f10x_RS485.o
 .ARM.attributes
                0x00000198       0x33 ..\obj\stm32f10x_rcc.o
 .ARM.attributes
                0x000001cb       0x33 ..\obj\startup_stm32f10x_cl.o
 .ARM.attributes
                0x000001fe       0x33 ..\obj\stm32f10x_exti.o
 .ARM.attributes
                0x00000231       0x33 ..\obj\stm32f10x_usart.o
 .ARM.attributes
                0x00000264       0x33 ..\obj\stm32f10x_RS485Master.o
 .ARM.attributes
                0x00000297       0x33 ..\obj\stm32f10x_dma.o
 .ARM.attributes
                0x000002ca       0x33 ..\obj\misc.o
 .ARM.attributes
                0x000002fd       0x33 ..\obj\stm32f10x_i2c.o
 .ARM.attributes
                0x00000330       0x33 ..\obj\stm32f10x_bkp.o
 .ARM.attributes
                0x00000363       0x33 ..\obj\stm32f10x_iwdg.o

.debug_frame    0x00000000     0x17dc
 .debug_frame   0x00000000      0x108 ..\obj\stm32f10x_rtc.o
 .debug_frame   0x00000108      0x650 ..\obj\stm32f10x_tim.o
 .debug_frame   0x00000758      0x170 ..\obj\core_cm3.o
 .debug_frame   0x000008c8       0x3c ..\obj\system_stm32f10x.o
 .debug_frame   0x00000904       0xa8 ..\obj\stm32f10x_pwr.o
 .debug_frame   0x000009ac      0x168 ..\obj\stm32f10x_gpio.o
 .debug_frame   0x00000b14      0x130 ..\obj\main.o
 .debug_frame   0x00000c44       0x60 ..\obj\stm32f10x_RS485.o
 .debug_frame   0x00000ca4      0x2b4 ..\obj\stm32f10x_rcc.o
 .debug_frame   0x00000f58       0x38 ..\obj\startup_stm32f10x_cl.o
 .debug_frame   0x00000f90       0x98 ..\obj\stm32f10x_exti.o
 .debug_frame   0x00001028      0x20c ..\obj\stm32f10x_usart.o
 .debug_frame   0x00001234       0xe8 ..\obj\stm32f10x_RS485Master.o
 .debug_frame   0x0000131c       0xc8 ..\obj\stm32f10x_dma.o
 .debug_frame   0x000013e4       0x68 ..\obj\misc.o
 .debug_frame   0x0000144c      0x240 ..\obj\stm32f10x_i2c.o
 .debug_frame   0x0000168c       0xe0 ..\obj\stm32f10x_bkp.o
 .debug_frame   0x0000176c       0x70 ..\obj\stm32f10x_iwdg.o
