
Debug/bin\Gefest.elf:     file format elf32-littlearm


Disassembly of section .text:

08000000 <g_pfnVectors>:
 8000000:	a4 5e 00 20 b9 0e 00 08 15 0f 00 08 15 0f 00 08     .^. ............
 8000010:	15 0f 00 08 15 0f 00 08 15 0f 00 08 00 00 00 00     ................
	...
 800002c:	15 0f 00 08 15 0f 00 08 00 00 00 00 15 0f 00 08     ................
 800003c:	15 0f 00 08 15 0f 00 08 15 0f 00 08 15 0f 00 08     ................
 800004c:	15 0f 00 08 15 0f 00 08 15 0f 00 08 15 0f 00 08     ................
 800005c:	15 0f 00 08 15 0f 00 08 15 0f 00 08 15 0f 00 08     ................
 800006c:	15 0f 00 08 15 0f 00 08 15 0f 00 08 15 0f 00 08     ................
 800007c:	15 0f 00 08 15 0f 00 08 15 0f 00 08 15 0f 00 08     ................
 800008c:	15 0f 00 08 15 0f 00 08 15 0f 00 08 15 0f 00 08     ................
 800009c:	15 0f 00 08 15 0f 00 08 15 0f 00 08 15 0f 00 08     ................
 80000ac:	15 0f 00 08 d9 06 00 08 15 0f 00 08 15 0f 00 08     ................
 80000bc:	15 0f 00 08 15 0f 00 08 15 0f 00 08 15 0f 00 08     ................
 80000cc:	15 0f 00 08 15 0f 00 08 15 08 00 08 15 0f 00 08     ................
 80000dc:	e9 11 00 08 15 0f 00 08 15 0f 00 08 15 0f 00 08     ................
	...
 8000108:	15 0f 00 08 15 0f 00 08 15 0f 00 08 15 0f 00 08     ................
 8000118:	15 0f 00 08 15 0f 00 08 15 0f 00 08 15 0f 00 08     ................
 8000128:	15 0f 00 08 15 0f 00 08 15 0f 00 08 15 0f 00 08     ................
 8000138:	15 0f 00 08 15 0f 00 08 15 0f 00 08 15 0f 00 08     ................
 8000148:	15 0f 00 08 15 0f 00 08 5f f8 08 f1                 ........_...

08000154 <SystemInit>:
 8000154:	b082      	sub	sp, #8
 8000156:	f44f 5380 	mov.w	r3, #4096	; 0x1000
 800015a:	f2c4 0302 	movt	r3, #16386	; 0x4002
 800015e:	681a      	ldr	r2, [r3, #0]
 8000160:	f042 0201 	orr.w	r2, r2, #1
 8000164:	601a      	str	r2, [r3, #0]
 8000166:	6859      	ldr	r1, [r3, #4]
 8000168:	f04f 0200 	mov.w	r2, #0
 800016c:	f2cf 02ff 	movt	r2, #61695	; 0xf0ff
 8000170:	400a      	ands	r2, r1
 8000172:	605a      	str	r2, [r3, #4]
 8000174:	681a      	ldr	r2, [r3, #0]
 8000176:	f022 7284 	bic.w	r2, r2, #17301504	; 0x1080000
 800017a:	f422 3280 	bic.w	r2, r2, #65536	; 0x10000
 800017e:	601a      	str	r2, [r3, #0]
 8000180:	681a      	ldr	r2, [r3, #0]
 8000182:	f422 2280 	bic.w	r2, r2, #262144	; 0x40000
 8000186:	601a      	str	r2, [r3, #0]
 8000188:	685a      	ldr	r2, [r3, #4]
 800018a:	f422 02fe 	bic.w	r2, r2, #8323072	; 0x7f0000
 800018e:	605a      	str	r2, [r3, #4]
 8000190:	681a      	ldr	r2, [r3, #0]
 8000192:	f022 52a0 	bic.w	r2, r2, #335544320	; 0x14000000
 8000196:	601a      	str	r2, [r3, #0]
 8000198:	f44f 027f 	mov.w	r2, #16711680	; 0xff0000
 800019c:	609a      	str	r2, [r3, #8]
 800019e:	f04f 0200 	mov.w	r2, #0
 80001a2:	62da      	str	r2, [r3, #44]	; 0x2c
 80001a4:	9200      	str	r2, [sp, #0]
 80001a6:	9201      	str	r2, [sp, #4]
 80001a8:	681a      	ldr	r2, [r3, #0]
 80001aa:	f442 3280 	orr.w	r2, r2, #65536	; 0x10000
 80001ae:	601a      	str	r2, [r3, #0]
 80001b0:	f44f 5280 	mov.w	r2, #4096	; 0x1000
 80001b4:	f2c4 0202 	movt	r2, #16386	; 0x4002
 80001b8:	6813      	ldr	r3, [r2, #0]
 80001ba:	f403 3300 	and.w	r3, r3, #131072	; 0x20000
 80001be:	9301      	str	r3, [sp, #4]
 80001c0:	9b00      	ldr	r3, [sp, #0]
 80001c2:	f103 0301 	add.w	r3, r3, #1
 80001c6:	9300      	str	r3, [sp, #0]
 80001c8:	9b01      	ldr	r3, [sp, #4]
 80001ca:	b91b      	cbnz	r3, 80001d4 <SystemInit+0x80>
 80001cc:	9b00      	ldr	r3, [sp, #0]
 80001ce:	f5b3 6fa0 	cmp.w	r3, #1280	; 0x500
 80001d2:	d1f1      	bne.n	80001b8 <SystemInit+0x64>
 80001d4:	f44f 5380 	mov.w	r3, #4096	; 0x1000
 80001d8:	f2c4 0302 	movt	r3, #16386	; 0x4002
 80001dc:	681b      	ldr	r3, [r3, #0]
 80001de:	f413 3f00 	tst.w	r3, #131072	; 0x20000
 80001e2:	bf14      	ite	ne
 80001e4:	2301      	movne	r3, #1
 80001e6:	2300      	moveq	r3, #0
 80001e8:	9301      	str	r3, [sp, #4]
 80001ea:	9b01      	ldr	r3, [sp, #4]
 80001ec:	2b01      	cmp	r3, #1
 80001ee:	d161      	bne.n	80002b4 <SystemInit+0x160>
 80001f0:	f44f 5300 	mov.w	r3, #8192	; 0x2000
 80001f4:	f2c4 0302 	movt	r3, #16386	; 0x4002
 80001f8:	681a      	ldr	r2, [r3, #0]
 80001fa:	f042 0210 	orr.w	r2, r2, #16
 80001fe:	601a      	str	r2, [r3, #0]
 8000200:	681a      	ldr	r2, [r3, #0]
 8000202:	f022 0203 	bic.w	r2, r2, #3
 8000206:	601a      	str	r2, [r3, #0]
 8000208:	681a      	ldr	r2, [r3, #0]
 800020a:	f042 0202 	orr.w	r2, r2, #2
 800020e:	601a      	str	r2, [r3, #0]
 8000210:	f44f 5380 	mov.w	r3, #4096	; 0x1000
 8000214:	f2c4 0302 	movt	r3, #16386	; 0x4002
 8000218:	685a      	ldr	r2, [r3, #4]
 800021a:	605a      	str	r2, [r3, #4]
 800021c:	685a      	ldr	r2, [r3, #4]
 800021e:	605a      	str	r2, [r3, #4]
 8000220:	685a      	ldr	r2, [r3, #4]
 8000222:	f442 6280 	orr.w	r2, r2, #1024	; 0x400
 8000226:	605a      	str	r2, [r3, #4]
 8000228:	6ad9      	ldr	r1, [r3, #44]	; 0x2c
 800022a:	f44f 4270 	mov.w	r2, #61440	; 0xf000
 800022e:	f6cf 72fe 	movt	r2, #65534	; 0xfffe
 8000232:	400a      	ands	r2, r1
 8000234:	62da      	str	r2, [r3, #44]	; 0x2c
 8000236:	6ada      	ldr	r2, [r3, #44]	; 0x2c
 8000238:	f442 3282 	orr.w	r2, r2, #66560	; 0x10400
 800023c:	f442 7211 	orr.w	r2, r2, #580	; 0x244
 8000240:	62da      	str	r2, [r3, #44]	; 0x2c
 8000242:	681a      	ldr	r2, [r3, #0]
 8000244:	f042 6280 	orr.w	r2, r2, #67108864	; 0x4000000
 8000248:	601a      	str	r2, [r3, #0]
 800024a:	f44f 5280 	mov.w	r2, #4096	; 0x1000
 800024e:	f2c4 0202 	movt	r2, #16386	; 0x4002
 8000252:	6813      	ldr	r3, [r2, #0]
 8000254:	f013 6f00 	tst.w	r3, #134217728	; 0x8000000
 8000258:	d0fb      	beq.n	8000252 <SystemInit+0xfe>
 800025a:	f44f 5380 	mov.w	r3, #4096	; 0x1000
 800025e:	f2c4 0302 	movt	r3, #16386	; 0x4002
 8000262:	685a      	ldr	r2, [r3, #4]
 8000264:	f422 127c 	bic.w	r2, r2, #4128768	; 0x3f0000
 8000268:	605a      	str	r2, [r3, #4]
 800026a:	685a      	ldr	r2, [r3, #4]
 800026c:	f442 12e8 	orr.w	r2, r2, #1900544	; 0x1d0000
 8000270:	605a      	str	r2, [r3, #4]
 8000272:	681a      	ldr	r2, [r3, #0]
 8000274:	f042 7280 	orr.w	r2, r2, #16777216	; 0x1000000
 8000278:	601a      	str	r2, [r3, #0]
 800027a:	f44f 5280 	mov.w	r2, #4096	; 0x1000
 800027e:	f2c4 0202 	movt	r2, #16386	; 0x4002
 8000282:	6813      	ldr	r3, [r2, #0]
 8000284:	f013 7f00 	tst.w	r3, #33554432	; 0x2000000
 8000288:	d0fb      	beq.n	8000282 <SystemInit+0x12e>
 800028a:	f44f 5380 	mov.w	r3, #4096	; 0x1000
 800028e:	f2c4 0302 	movt	r3, #16386	; 0x4002
 8000292:	685a      	ldr	r2, [r3, #4]
 8000294:	f022 0203 	bic.w	r2, r2, #3
 8000298:	605a      	str	r2, [r3, #4]
 800029a:	685a      	ldr	r2, [r3, #4]
 800029c:	f042 0202 	orr.w	r2, r2, #2
 80002a0:	605a      	str	r2, [r3, #4]
 80002a2:	f44f 5280 	mov.w	r2, #4096	; 0x1000
 80002a6:	f2c4 0202 	movt	r2, #16386	; 0x4002
 80002aa:	6853      	ldr	r3, [r2, #4]
 80002ac:	f003 030c 	and.w	r3, r3, #12
 80002b0:	2b08      	cmp	r3, #8
 80002b2:	d1fa      	bne.n	80002aa <SystemInit+0x156>
 80002b4:	f44f 436d 	mov.w	r3, #60672	; 0xed00
 80002b8:	f2ce 0300 	movt	r3, #57344	; 0xe000
 80002bc:	f04f 6200 	mov.w	r2, #134217728	; 0x8000000
 80002c0:	609a      	str	r2, [r3, #8]
 80002c2:	b002      	add	sp, #8
 80002c4:	4770      	bx	lr
 80002c6:	bf00      	nop

080002c8 <GPIO_Init>:
 80002c8:	e92d 03f0 	stmdb	sp!, {r4, r5, r6, r7, r8, r9}
 80002cc:	78cb      	ldrb	r3, [r1, #3]
 80002ce:	f003 050f 	and.w	r5, r3, #15
 80002d2:	f013 0f10 	tst.w	r3, #16
 80002d6:	bf1c      	itt	ne
 80002d8:	788b      	ldrbne	r3, [r1, #2]
 80002da:	431d      	orrne	r5, r3
 80002dc:	780b      	ldrb	r3, [r1, #0]
 80002de:	b32b      	cbz	r3, 800032c <GPIO_Init+0x64>
 80002e0:	f8d0 c000 	ldr.w	ip, [r0]
 80002e4:	f04f 0300 	mov.w	r3, #0
 80002e8:	f04f 0601 	mov.w	r6, #1
 80002ec:	f04f 080f 	mov.w	r8, #15
 80002f0:	fa06 f203 	lsl.w	r2, r6, r3
 80002f4:	880c      	ldrh	r4, [r1, #0]
 80002f6:	4014      	ands	r4, r2
 80002f8:	4294      	cmp	r4, r2
 80002fa:	d111      	bne.n	8000320 <GPIO_Init+0x58>
 80002fc:	ea4f 0783 	mov.w	r7, r3, lsl #2
 8000300:	fa08 f907 	lsl.w	r9, r8, r7
 8000304:	ea2c 0c09 	bic.w	ip, ip, r9
 8000308:	fa05 f707 	lsl.w	r7, r5, r7
 800030c:	ea4c 0c07 	orr.w	ip, ip, r7
 8000310:	78cf      	ldrb	r7, [r1, #3]
 8000312:	2f28      	cmp	r7, #40	; 0x28
 8000314:	d101      	bne.n	800031a <GPIO_Init+0x52>
 8000316:	6144      	str	r4, [r0, #20]
 8000318:	e002      	b.n	8000320 <GPIO_Init+0x58>
 800031a:	2f48      	cmp	r7, #72	; 0x48
 800031c:	bf08      	it	eq
 800031e:	6102      	streq	r2, [r0, #16]
 8000320:	f103 0301 	add.w	r3, r3, #1
 8000324:	2b08      	cmp	r3, #8
 8000326:	d1e3      	bne.n	80002f0 <GPIO_Init+0x28>
 8000328:	f8c0 c000 	str.w	ip, [r0]
 800032c:	880b      	ldrh	r3, [r1, #0]
 800032e:	2bff      	cmp	r3, #255	; 0xff
 8000330:	d927      	bls.n	8000382 <GPIO_Init+0xba>
 8000332:	f8d0 c004 	ldr.w	ip, [r0, #4]
 8000336:	f04f 0300 	mov.w	r3, #0
 800033a:	f04f 0601 	mov.w	r6, #1
 800033e:	f04f 080f 	mov.w	r8, #15
 8000342:	f103 0208 	add.w	r2, r3, #8
 8000346:	fa06 f202 	lsl.w	r2, r6, r2
 800034a:	880c      	ldrh	r4, [r1, #0]
 800034c:	4014      	ands	r4, r2
 800034e:	4294      	cmp	r4, r2
 8000350:	d111      	bne.n	8000376 <GPIO_Init+0xae>
 8000352:	ea4f 0783 	mov.w	r7, r3, lsl #2
 8000356:	fa08 f907 	lsl.w	r9, r8, r7
 800035a:	ea2c 0c09 	bic.w	ip, ip, r9
 800035e:	fa05 f707 	lsl.w	r7, r5, r7
 8000362:	ea4c 0c07 	orr.w	ip, ip, r7
 8000366:	78cf      	ldrb	r7, [r1, #3]
 8000368:	2f28      	cmp	r7, #40	; 0x28
 800036a:	bf08      	it	eq
 800036c:	6144      	streq	r4, [r0, #20]
 800036e:	78cc      	ldrb	r4, [r1, #3]
 8000370:	2c48      	cmp	r4, #72	; 0x48
 8000372:	bf08      	it	eq
 8000374:	6102      	streq	r2, [r0, #16]
 8000376:	f103 0301 	add.w	r3, r3, #1
 800037a:	2b08      	cmp	r3, #8
 800037c:	d1e1      	bne.n	8000342 <GPIO_Init+0x7a>
 800037e:	f8c0 c004 	str.w	ip, [r0, #4]
 8000382:	e8bd 03f0 	ldmia.w	sp!, {r4, r5, r6, r7, r8, r9}
 8000386:	4770      	bx	lr

08000388 <GPIO_WriteBit>:
 8000388:	b10a      	cbz	r2, 800038e <GPIO_WriteBit+0x6>
 800038a:	6101      	str	r1, [r0, #16]
 800038c:	4770      	bx	lr
 800038e:	6141      	str	r1, [r0, #20]
 8000390:	4770      	bx	lr
 8000392:	bf00      	nop

08000394 <GPIO_PinRemapConfig>:
 8000394:	b430      	push	{r4, r5}
 8000396:	2800      	cmp	r0, #0
 8000398:	f04f 0300 	mov.w	r3, #0
 800039c:	f2c4 0301 	movt	r3, #16385	; 0x4001
 80003a0:	bfb4      	ite	lt
 80003a2:	69db      	ldrlt	r3, [r3, #28]
 80003a4:	685b      	ldrge	r3, [r3, #4]
 80003a6:	b284      	uxth	r4, r0
 80003a8:	f400 1240 	and.w	r2, r0, #3145728	; 0x300000
 80003ac:	f5b2 1f40 	cmp.w	r2, #3145728	; 0x300000
 80003b0:	d10a      	bne.n	80003c8 <GPIO_PinRemapConfig+0x34>
 80003b2:	f023 6370 	bic.w	r3, r3, #251658240	; 0xf000000
 80003b6:	f04f 0200 	mov.w	r2, #0
 80003ba:	f2c4 0201 	movt	r2, #16385	; 0x4001
 80003be:	6855      	ldr	r5, [r2, #4]
 80003c0:	f025 6570 	bic.w	r5, r5, #251658240	; 0xf000000
 80003c4:	6055      	str	r5, [r2, #4]
 80003c6:	e017      	b.n	80003f8 <GPIO_PinRemapConfig+0x64>
 80003c8:	f410 1f80 	tst.w	r0, #1048576	; 0x100000
 80003cc:	d00a      	beq.n	80003e4 <GPIO_PinRemapConfig+0x50>
 80003ce:	f3c0 4203 	ubfx	r2, r0, #16, #4
 80003d2:	f04f 0503 	mov.w	r5, #3
 80003d6:	fa05 f202 	lsl.w	r2, r5, r2
 80003da:	ea23 0302 	bic.w	r3, r3, r2
 80003de:	f043 6370 	orr.w	r3, r3, #251658240	; 0xf000000
 80003e2:	e009      	b.n	80003f8 <GPIO_PinRemapConfig+0x64>
 80003e4:	ea4f 5250 	mov.w	r2, r0, lsr #21
 80003e8:	ea4f 1202 	mov.w	r2, r2, lsl #4
 80003ec:	fa04 f202 	lsl.w	r2, r4, r2
 80003f0:	ea23 0302 	bic.w	r3, r3, r2
 80003f4:	f043 6370 	orr.w	r3, r3, #251658240	; 0xf000000
 80003f8:	b131      	cbz	r1, 8000408 <GPIO_PinRemapConfig+0x74>
 80003fa:	ea4f 5250 	mov.w	r2, r0, lsr #21
 80003fe:	ea4f 1202 	mov.w	r2, r2, lsl #4
 8000402:	fa04 f402 	lsl.w	r4, r4, r2
 8000406:	4323      	orrs	r3, r4
 8000408:	2800      	cmp	r0, #0
 800040a:	f04f 0200 	mov.w	r2, #0
 800040e:	f2c4 0201 	movt	r2, #16385	; 0x4001
 8000412:	bfb4      	ite	lt
 8000414:	61d3      	strlt	r3, [r2, #28]
 8000416:	6053      	strge	r3, [r2, #4]
 8000418:	bc30      	pop	{r4, r5}
 800041a:	4770      	bx	lr

0800041c <Control_Init>:
 800041c:	b570      	push	{r4, r5, r6, lr}
 800041e:	f641 043c 	movw	r4, #6204	; 0x183c
 8000422:	f2c2 0400 	movt	r4, #8192	; 0x2000
 8000426:	4d16      	ldr	r5, [pc, #88]	; (8000480 <Control_Init+0x64>)
 8000428:	6025      	str	r5, [r4, #0]
 800042a:	f505 5685 	add.w	r6, r5, #4256	; 0x10a0
 800042e:	6066      	str	r6, [r4, #4]
 8000430:	f505 7380 	add.w	r3, r5, #256	; 0x100
 8000434:	60a3      	str	r3, [r4, #8]
 8000436:	60e5      	str	r5, [r4, #12]
 8000438:	6125      	str	r5, [r4, #16]
 800043a:	6165      	str	r5, [r4, #20]
 800043c:	f001 f9c0 	bl	80017c0 <IWDG_ReloadCounter>
 8000440:	61a5      	str	r5, [r4, #24]
 8000442:	61e5      	str	r5, [r4, #28]
 8000444:	f505 53bc 	add.w	r3, r5, #6016	; 0x1780
 8000448:	f103 0333 	add.w	r3, r3, #51	; 0x33
 800044c:	6223      	str	r3, [r4, #32]
 800044e:	f505 5384 	add.w	r3, r5, #4224	; 0x1080
 8000452:	f103 0330 	add.w	r3, r3, #48	; 0x30
 8000456:	6263      	str	r3, [r4, #36]	; 0x24
 8000458:	62a5      	str	r5, [r4, #40]	; 0x28
 800045a:	f1a3 0331 	sub.w	r3, r3, #49	; 0x31
 800045e:	f04f 0201 	mov.w	r2, #1
 8000462:	7032      	strb	r2, [r6, #0]
 8000464:	f04f 0203 	mov.w	r2, #3
 8000468:	f883 2022 	strb.w	r2, [r3, #34]	; 0x22
 800046c:	f883 2023 	strb.w	r2, [r3, #35]	; 0x23
 8000470:	f883 2024 	strb.w	r2, [r3, #36]	; 0x24
 8000474:	f04f 028c 	mov.w	r2, #140	; 0x8c
 8000478:	f883 2025 	strb.w	r2, [r3, #37]	; 0x25
 800047c:	bd70      	pop	{r4, r5, r6, pc}
 800047e:	bf00      	nop
 8000480:	20000049 	.word	0x20000049

08000484 <Port_Init>:
 8000484:	b510      	push	{r4, lr}
 8000486:	b082      	sub	sp, #8
 8000488:	f04f 04ff 	mov.w	r4, #255	; 0xff
 800048c:	f8ad 4004 	strh.w	r4, [sp, #4]
 8000490:	f04f 0303 	mov.w	r3, #3
 8000494:	f88d 3006 	strb.w	r3, [sp, #6]
 8000498:	f04f 0310 	mov.w	r3, #16
 800049c:	f88d 3007 	strb.w	r3, [sp, #7]
 80004a0:	f44f 6000 	mov.w	r0, #2048	; 0x800
 80004a4:	f2c4 0001 	movt	r0, #16385	; 0x4001
 80004a8:	a901      	add	r1, sp, #4
 80004aa:	f7ff ff0d 	bl	80002c8 <GPIO_Init>
 80004ae:	f8ad 4004 	strh.w	r4, [sp, #4]
 80004b2:	f44f 6040 	mov.w	r0, #3072	; 0xc00
 80004b6:	f2c4 0001 	movt	r0, #16385	; 0x4001
 80004ba:	a901      	add	r1, sp, #4
 80004bc:	f7ff ff04 	bl	80002c8 <GPIO_Init>
 80004c0:	f8ad 4004 	strh.w	r4, [sp, #4]
 80004c4:	f44f 5480 	mov.w	r4, #4096	; 0x1000
 80004c8:	f2c4 0401 	movt	r4, #16385	; 0x4001
 80004cc:	4620      	mov	r0, r4
 80004ce:	a901      	add	r1, sp, #4
 80004d0:	f7ff fefa 	bl	80002c8 <GPIO_Init>
 80004d4:	f44f 6300 	mov.w	r3, #2048	; 0x800
 80004d8:	f8ad 3004 	strh.w	r3, [sp, #4]
 80004dc:	4620      	mov	r0, r4
 80004de:	a901      	add	r1, sp, #4
 80004e0:	f7ff fef2 	bl	80002c8 <GPIO_Init>
 80004e4:	b002      	add	sp, #8
 80004e6:	bd10      	pop	{r4, pc}

080004e8 <Addr_Init>:
 80004e8:	b500      	push	{lr}
 80004ea:	b083      	sub	sp, #12
 80004ec:	f44f 4370 	mov.w	r3, #61440	; 0xf000
 80004f0:	f8ad 3004 	strh.w	r3, [sp, #4]
 80004f4:	f04f 0303 	mov.w	r3, #3
 80004f8:	f88d 3006 	strb.w	r3, [sp, #6]
 80004fc:	f04f 0328 	mov.w	r3, #40	; 0x28
 8000500:	f88d 3007 	strb.w	r3, [sp, #7]
 8000504:	f44f 6040 	mov.w	r0, #3072	; 0xc00
 8000508:	f2c4 0001 	movt	r0, #16385	; 0x4001
 800050c:	a901      	add	r1, sp, #4
 800050e:	f7ff fedb 	bl	80002c8 <GPIO_Init>
 8000512:	b003      	add	sp, #12
 8000514:	bd00      	pop	{pc}
 8000516:	bf00      	nop

08000518 <SetRegOut>:
 8000518:	f44f 6300 	mov.w	r3, #2048	; 0x800
 800051c:	f2c4 0301 	movt	r3, #16385	; 0x4001
 8000520:	68da      	ldr	r2, [r3, #12]
 8000522:	f022 02ff 	bic.w	r2, r2, #255	; 0xff
 8000526:	60da      	str	r2, [r3, #12]
 8000528:	68da      	ldr	r2, [r3, #12]
 800052a:	b2c1      	uxtb	r1, r0
 800052c:	430a      	orrs	r2, r1
 800052e:	60da      	str	r2, [r3, #12]
 8000530:	f44f 6340 	mov.w	r3, #3072	; 0xc00
 8000534:	f2c4 0301 	movt	r3, #16385	; 0x4001
 8000538:	68da      	ldr	r2, [r3, #12]
 800053a:	f022 02ff 	bic.w	r2, r2, #255	; 0xff
 800053e:	60da      	str	r2, [r3, #12]
 8000540:	68da      	ldr	r2, [r3, #12]
 8000542:	f3c0 2107 	ubfx	r1, r0, #8, #8
 8000546:	430a      	orrs	r2, r1
 8000548:	60da      	str	r2, [r3, #12]
 800054a:	f44f 5380 	mov.w	r3, #4096	; 0x1000
 800054e:	f2c4 0301 	movt	r3, #16385	; 0x4001
 8000552:	68da      	ldr	r2, [r3, #12]
 8000554:	f022 02ff 	bic.w	r2, r2, #255	; 0xff
 8000558:	60da      	str	r2, [r3, #12]
 800055a:	68da      	ldr	r2, [r3, #12]
 800055c:	f3c0 4007 	ubfx	r0, r0, #16, #8
 8000560:	4310      	orrs	r0, r2
 8000562:	60d8      	str	r0, [r3, #12]
 8000564:	4770      	bx	lr
 8000566:	bf00      	nop

08000568 <SetOutBit>:
 8000568:	b430      	push	{r4, r5}
 800056a:	f240 0348 	movw	r3, #72	; 0x48
 800056e:	f2c2 0300 	movt	r3, #8192	; 0x2000
 8000572:	f8d3 3005 	ldr.w	r3, [r3, #5]
 8000576:	4218      	tst	r0, r3
 8000578:	d061      	beq.n	800063e <SetOutBit+0xd6>
 800057a:	f240 0348 	movw	r3, #72	; 0x48
 800057e:	f2c2 0300 	movt	r3, #8192	; 0x2000
 8000582:	f8d3 2001 	ldr.w	r2, [r3, #1]
 8000586:	4210      	tst	r0, r2
 8000588:	d00f      	beq.n	80005aa <SetOutBit+0x42>
 800058a:	f240 0430 	movw	r4, #48	; 0x30
 800058e:	f2c2 0400 	movt	r4, #8192	; 0x2000
 8000592:	f240 0348 	movw	r3, #72	; 0x48
 8000596:	f2c2 0300 	movt	r3, #8192	; 0x2000
 800059a:	eb03 0541 	add.w	r5, r3, r1, lsl #1
 800059e:	7a6d      	ldrb	r5, [r5, #9]
 80005a0:	5465      	strb	r5, [r4, r1]
 80005a2:	ea22 0200 	bic.w	r2, r2, r0
 80005a6:	f8c3 2001 	str.w	r2, [r3, #1]
 80005aa:	f240 0330 	movw	r3, #48	; 0x30
 80005ae:	f2c2 0300 	movt	r3, #8192	; 0x2000
 80005b2:	5c5b      	ldrb	r3, [r3, r1]
 80005b4:	b19b      	cbz	r3, 80005de <SetOutBit+0x76>
 80005b6:	f240 0230 	movw	r2, #48	; 0x30
 80005ba:	f2c2 0200 	movt	r2, #8192	; 0x2000
 80005be:	f103 33ff 	add.w	r3, r3, #4294967295
 80005c2:	5453      	strb	r3, [r2, r1]
 80005c4:	f240 0318 	movw	r3, #24
 80005c8:	f2c2 0300 	movt	r3, #8192	; 0x2000
 80005cc:	f240 0248 	movw	r2, #72	; 0x48
 80005d0:	f2c2 0200 	movt	r2, #8192	; 0x2000
 80005d4:	eb02 0241 	add.w	r2, r2, r1, lsl #1
 80005d8:	7a92      	ldrb	r2, [r2, #10]
 80005da:	545a      	strb	r2, [r3, r1]
 80005dc:	e039      	b.n	8000652 <SetOutBit+0xea>
 80005de:	f240 0318 	movw	r3, #24
 80005e2:	f2c2 0300 	movt	r3, #8192	; 0x2000
 80005e6:	5c5b      	ldrb	r3, [r3, r1]
 80005e8:	2bff      	cmp	r3, #255	; 0xff
 80005ea:	d10e      	bne.n	800060a <SetOutBit+0xa2>
 80005ec:	f240 0318 	movw	r3, #24
 80005f0:	f2c2 0300 	movt	r3, #8192	; 0x2000
 80005f4:	f240 0248 	movw	r2, #72	; 0x48
 80005f8:	f2c2 0200 	movt	r2, #8192	; 0x2000
 80005fc:	eb02 0241 	add.w	r2, r2, r1, lsl #1
 8000600:	7a92      	ldrb	r2, [r2, #10]
 8000602:	545a      	strb	r2, [r3, r1]
 8000604:	f04f 0000 	mov.w	r0, #0
 8000608:	e023      	b.n	8000652 <SetOutBit+0xea>
 800060a:	b14b      	cbz	r3, 8000620 <SetOutBit+0xb8>
 800060c:	f240 0218 	movw	r2, #24
 8000610:	f2c2 0200 	movt	r2, #8192	; 0x2000
 8000614:	f103 33ff 	add.w	r3, r3, #4294967295
 8000618:	5453      	strb	r3, [r2, r1]
 800061a:	f04f 0000 	mov.w	r0, #0
 800061e:	e018      	b.n	8000652 <SetOutBit+0xea>
 8000620:	f240 0330 	movw	r3, #48	; 0x30
 8000624:	f2c2 0300 	movt	r3, #8192	; 0x2000
 8000628:	f240 0248 	movw	r2, #72	; 0x48
 800062c:	f2c2 0200 	movt	r2, #8192	; 0x2000
 8000630:	eb02 0241 	add.w	r2, r2, r1, lsl #1
 8000634:	7a52      	ldrb	r2, [r2, #9]
 8000636:	545a      	strb	r2, [r3, r1]
 8000638:	f04f 0000 	mov.w	r0, #0
 800063c:	e009      	b.n	8000652 <SetOutBit+0xea>
 800063e:	f240 0348 	movw	r3, #72	; 0x48
 8000642:	f2c2 0300 	movt	r3, #8192	; 0x2000
 8000646:	f8d3 3001 	ldr.w	r3, [r3, #1]
 800064a:	4003      	ands	r3, r0
 800064c:	2b00      	cmp	r3, #0
 800064e:	bf08      	it	eq
 8000650:	2000      	moveq	r0, #0
 8000652:	bc30      	pop	{r4, r5}
 8000654:	4770      	bx	lr
 8000656:	bf00      	nop

08000658 <DoIt>:
 8000658:	b570      	push	{r4, r5, r6, lr}
 800065a:	f04f 0400 	mov.w	r4, #0
 800065e:	4625      	mov	r5, r4
 8000660:	f04f 0601 	mov.w	r6, #1
 8000664:	fa06 f004 	lsl.w	r0, r6, r4
 8000668:	b2e1      	uxtb	r1, r4
 800066a:	f7ff ff7d 	bl	8000568 <SetOutBit>
 800066e:	4305      	orrs	r5, r0
 8000670:	f104 0401 	add.w	r4, r4, #1
 8000674:	2c18      	cmp	r4, #24
 8000676:	d1f5      	bne.n	8000664 <DoIt+0xc>
 8000678:	4628      	mov	r0, r5
 800067a:	bd70      	pop	{r4, r5, r6, pc}

0800067c <InitMainTimer>:
 800067c:	b530      	push	{r4, r5, lr}
 800067e:	b083      	sub	sp, #12
 8000680:	f44f 5380 	mov.w	r3, #4096	; 0x1000
 8000684:	f2c4 0302 	movt	r3, #16386	; 0x4002
 8000688:	69da      	ldr	r2, [r3, #28]
 800068a:	f042 0201 	orr.w	r2, r2, #1
 800068e:	61da      	str	r2, [r3, #28]
 8000690:	f04f 4480 	mov.w	r4, #1073741824	; 0x40000000
 8000694:	f641 733f 	movw	r3, #7999	; 0x1f3f
 8000698:	8523      	strh	r3, [r4, #40]	; 0x28
 800069a:	f44f 737a 	mov.w	r3, #1000	; 0x3e8
 800069e:	85a3      	strh	r3, [r4, #44]	; 0x2c
 80006a0:	f04f 0300 	mov.w	r3, #0
 80006a4:	8223      	strh	r3, [r4, #16]
 80006a6:	f04f 0501 	mov.w	r5, #1
 80006aa:	81a5      	strh	r5, [r4, #12]
 80006ac:	f04f 031c 	mov.w	r3, #28
 80006b0:	f88d 3004 	strb.w	r3, [sp, #4]
 80006b4:	f04f 0303 	mov.w	r3, #3
 80006b8:	f88d 3005 	strb.w	r3, [sp, #5]
 80006bc:	f88d 3006 	strb.w	r3, [sp, #6]
 80006c0:	f88d 5007 	strb.w	r5, [sp, #7]
 80006c4:	a801      	add	r0, sp, #4
 80006c6:	f001 f839 	bl	800173c <NVIC_Init>
 80006ca:	82a5      	strh	r5, [r4, #20]
 80006cc:	8823      	ldrh	r3, [r4, #0]
 80006ce:	b29b      	uxth	r3, r3
 80006d0:	432b      	orrs	r3, r5
 80006d2:	8023      	strh	r3, [r4, #0]
 80006d4:	b003      	add	sp, #12
 80006d6:	bd30      	pop	{r4, r5, pc}

080006d8 <TIM2_IRQHandler>:
 80006d8:	b508      	push	{r3, lr}
 80006da:	f44f 6340 	mov.w	r3, #3072	; 0xc00
 80006de:	f2c4 0301 	movt	r3, #16385	; 0x4001
 80006e2:	6899      	ldr	r1, [r3, #8]
 80006e4:	f240 0348 	movw	r3, #72	; 0x48
 80006e8:	f2c2 0300 	movt	r3, #8192	; 0x2000
 80006ec:	f503 5284 	add.w	r2, r3, #4224	; 0x1080
 80006f0:	ea6f 0101 	mvn.w	r1, r1
 80006f4:	f3c1 3103 	ubfx	r1, r1, #12, #4
 80006f8:	f101 0178 	add.w	r1, r1, #120	; 0x78
 80006fc:	f882 1026 	strb.w	r1, [r2, #38]	; 0x26
 8000700:	f503 53bc 	add.w	r3, r3, #6016	; 0x1780
 8000704:	f893 3034 	ldrb.w	r3, [r3, #52]	; 0x34
 8000708:	2b01      	cmp	r3, #1
 800070a:	d00f      	beq.n	800072c <TIM2_IRQHandler+0x54>
 800070c:	f04f 0200 	mov.w	r2, #0
 8000710:	f04f 0301 	mov.w	r3, #1
 8000714:	f240 0048 	movw	r0, #72	; 0x48
 8000718:	f2c2 0000 	movt	r0, #8192	; 0x2000
 800071c:	1811      	adds	r1, r2, r0
 800071e:	f501 51bc 	add.w	r1, r1, #6016	; 0x1780
 8000722:	f891 1037 	ldrb.w	r1, [r1, #55]	; 0x37
 8000726:	2901      	cmp	r1, #1
 8000728:	d114      	bne.n	8000754 <TIM2_IRQHandler+0x7c>
 800072a:	e001      	b.n	8000730 <TIM2_IRQHandler+0x58>
 800072c:	f04f 0300 	mov.w	r3, #0
 8000730:	f240 0248 	movw	r2, #72	; 0x48
 8000734:	f2c2 0200 	movt	r2, #8192	; 0x2000
 8000738:	eb03 0343 	add.w	r3, r3, r3, lsl #1
 800073c:	18d3      	adds	r3, r2, r3
 800073e:	f503 53bc 	add.w	r3, r3, #6016	; 0x1780
 8000742:	f103 0330 	add.w	r3, r3, #48	; 0x30
 8000746:	f8b3 3005 	ldrh.w	r3, [r3, #5]
 800074a:	f502 5284 	add.w	r2, r2, #4224	; 0x1080
 800074e:	f8a2 3031 	strh.w	r3, [r2, #49]	; 0x31
 8000752:	e005      	b.n	8000760 <TIM2_IRQHandler+0x88>
 8000754:	f103 0301 	add.w	r3, r3, #1
 8000758:	f102 0203 	add.w	r2, r2, #3
 800075c:	2b08      	cmp	r3, #8
 800075e:	d1dd      	bne.n	800071c <TIM2_IRQHandler+0x44>
 8000760:	4806      	ldr	r0, [pc, #24]	; (800077c <TIM2_IRQHandler+0xa4>)
 8000762:	f000 fed9 	bl	8001518 <SendFans>
 8000766:	f7ff ff77 	bl	8000658 <DoIt>
 800076a:	f7ff fed5 	bl	8000518 <SetRegOut>
 800076e:	f04f 0200 	mov.w	r2, #0
 8000772:	f04f 4380 	mov.w	r3, #1073741824	; 0x40000000
 8000776:	821a      	strh	r2, [r3, #16]
 8000778:	bd08      	pop	{r3, pc}
 800077a:	bf00      	nop
 800077c:	200010f9 	.word	0x200010f9

08000780 <Check_IWDG>:
 8000780:	f641 037c 	movw	r3, #6268	; 0x187c
 8000784:	f2c2 0300 	movt	r3, #8192	; 0x2000
 8000788:	681b      	ldr	r3, [r3, #0]
 800078a:	881a      	ldrh	r2, [r3, #0]
 800078c:	f102 0201 	add.w	r2, r2, #1
 8000790:	801a      	strh	r2, [r3, #0]
 8000792:	4770      	bx	lr

08000794 <Init_STM32>:
 8000794:	b500      	push	{lr}
 8000796:	b083      	sub	sp, #12
 8000798:	f04f 003c 	mov.w	r0, #60	; 0x3c
 800079c:	f04f 0101 	mov.w	r1, #1
 80007a0:	f000 fb66 	bl	8000e70 <RCC_APB2PeriphClockCmd>
 80007a4:	f04f 0001 	mov.w	r0, #1
 80007a8:	4601      	mov	r1, r0
 80007aa:	f000 fb61 	bl	8000e70 <RCC_APB2PeriphClockCmd>
 80007ae:	f44f 7000 	mov.w	r0, #512	; 0x200
 80007b2:	f2c0 0030 	movt	r0, #48	; 0x30
 80007b6:	f04f 0101 	mov.w	r1, #1
 80007ba:	f7ff fdeb 	bl	8000394 <GPIO_PinRemapConfig>
 80007be:	f44f 4096 	mov.w	r0, #19200	; 0x4b00
 80007c2:	f000 fc8d 	bl	80010e0 <USART_OUT_Configuration>
 80007c6:	f641 013c 	movw	r1, #6204	; 0x183c
 80007ca:	f2c2 0100 	movt	r1, #8192	; 0x2000
 80007ce:	f240 0248 	movw	r2, #72	; 0x48
 80007d2:	f2c2 0200 	movt	r2, #8192	; 0x2000
 80007d6:	f641 033a 	movw	r3, #6202	; 0x183a
 80007da:	f2c2 0300 	movt	r3, #8192	; 0x2000
 80007de:	f44f 5016 	mov.w	r0, #9600	; 0x2580
 80007e2:	9000      	str	r0, [sp, #0]
 80007e4:	f502 5084 	add.w	r0, r2, #4224	; 0x1080
 80007e8:	f100 0026 	add.w	r0, r0, #38	; 0x26
 80007ec:	f000 fa1c 	bl	8000c28 <USART_PC_Configuration>
 80007f0:	f7ff fe14 	bl	800041c <Control_Init>
 80007f4:	f7ff fe46 	bl	8000484 <Port_Init>
 80007f8:	f7ff fe76 	bl	80004e8 <Addr_Init>
 80007fc:	f7ff ff3e 	bl	800067c <InitMainTimer>
 8000800:	f7ff ffbe 	bl	8000780 <Check_IWDG>
 8000804:	b003      	add	sp, #12
 8000806:	bd00      	pop	{pc}

08000808 <main>:
 8000808:	b508      	push	{r3, lr}
 800080a:	f7ff ffc3 	bl	8000794 <Init_STM32>
 800080e:	b662      	cpsie	i
 8000810:	e7fe      	b.n	8000810 <main+0x8>
 8000812:	bf00      	nop

08000814 <USART1_IRQHandler>:
 8000814:	b570      	push	{r4, r5, r6, lr}
 8000816:	f44f 5360 	mov.w	r3, #14336	; 0x3800
 800081a:	f2c4 0301 	movt	r3, #16385	; 0x4001
 800081e:	881b      	ldrh	r3, [r3, #0]
 8000820:	f013 0f20 	tst.w	r3, #32
 8000824:	f000 8188 	beq.w	8000b38 <USART1_IRQHandler+0x324>
 8000828:	f44f 5060 	mov.w	r0, #14336	; 0x3800
 800082c:	f2c4 0001 	movt	r0, #16385	; 0x4001
 8000830:	f000 fc22 	bl	8001078 <USART_ReceiveData>
 8000834:	4604      	mov	r4, r0
 8000836:	f641 03b2 	movw	r3, #6322	; 0x18b2
 800083a:	f2c2 0300 	movt	r3, #8192	; 0x2000
 800083e:	781b      	ldrb	r3, [r3, #0]
 8000840:	2b01      	cmp	r3, #1
 8000842:	d04b      	beq.n	80008dc <USART1_IRQHandler+0xc8>
 8000844:	b11b      	cbz	r3, 800084e <USART1_IRQHandler+0x3a>
 8000846:	2b02      	cmp	r3, #2
 8000848:	f040 8176 	bne.w	8000b38 <USART1_IRQHandler+0x324>
 800084c:	e0fd      	b.n	8000a4a <USART1_IRQHandler+0x236>
 800084e:	f641 039c 	movw	r3, #6300	; 0x189c
 8000852:	f2c2 0300 	movt	r3, #8192	; 0x2000
 8000856:	681b      	ldr	r3, [r3, #0]
 8000858:	781b      	ldrb	r3, [r3, #0]
 800085a:	f443 7380 	orr.w	r3, r3, #256	; 0x100
 800085e:	4298      	cmp	r0, r3
 8000860:	f040 81e0 	bne.w	8000c24 <USART1_IRQHandler+0x410>
 8000864:	f641 0384 	movw	r3, #6276	; 0x1884
 8000868:	f2c2 0300 	movt	r3, #8192	; 0x2000
 800086c:	681b      	ldr	r3, [r3, #0]
 800086e:	f04f 0270 	mov.w	r2, #112	; 0x70
 8000872:	701a      	strb	r2, [r3, #0]
 8000874:	f44f 6000 	mov.w	r0, #2048	; 0x800
 8000878:	f2c4 0001 	movt	r0, #16385	; 0x4001
 800087c:	f44f 7180 	mov.w	r1, #256	; 0x100
 8000880:	f04f 0201 	mov.w	r2, #1
 8000884:	f7ff fd80 	bl	8000388 <GPIO_WriteBit>
 8000888:	f641 03b2 	movw	r3, #6322	; 0x18b2
 800088c:	f2c2 0300 	movt	r3, #8192	; 0x2000
 8000890:	f04f 0201 	mov.w	r2, #1
 8000894:	701a      	strb	r2, [r3, #0]
 8000896:	f641 0394 	movw	r3, #6292	; 0x1894
 800089a:	f2c2 0300 	movt	r3, #8192	; 0x2000
 800089e:	f04f 0600 	mov.w	r6, #0
 80008a2:	601e      	str	r6, [r3, #0]
 80008a4:	f641 0388 	movw	r3, #6280	; 0x1888
 80008a8:	f2c2 0300 	movt	r3, #8192	; 0x2000
 80008ac:	f04f 0106 	mov.w	r1, #6
 80008b0:	6019      	str	r1, [r3, #0]
 80008b2:	f44f 5560 	mov.w	r5, #14336	; 0x3800
 80008b6:	f2c4 0501 	movt	r5, #16385	; 0x4001
 80008ba:	4628      	mov	r0, r5
 80008bc:	f240 7127 	movw	r1, #1831	; 0x727
 80008c0:	f000 fbb6 	bl	8001030 <USART_ITConfig>
 80008c4:	f444 7180 	orr.w	r1, r4, #256	; 0x100
 80008c8:	b289      	uxth	r1, r1
 80008ca:	4628      	mov	r0, r5
 80008cc:	f000 fbce 	bl	800106c <USART_SendData>
 80008d0:	f641 0380 	movw	r3, #6272	; 0x1880
 80008d4:	f2c2 0300 	movt	r3, #8192	; 0x2000
 80008d8:	701e      	strb	r6, [r3, #0]
 80008da:	bd70      	pop	{r4, r5, r6, pc}
 80008dc:	f641 0394 	movw	r3, #6292	; 0x1894
 80008e0:	f2c2 0300 	movt	r3, #8192	; 0x2000
 80008e4:	6819      	ldr	r1, [r3, #0]
 80008e6:	b2c4      	uxtb	r4, r0
 80008e8:	f641 02a0 	movw	r2, #6304	; 0x18a0
 80008ec:	f2c2 0200 	movt	r2, #8192	; 0x2000
 80008f0:	5454      	strb	r4, [r2, r1]
 80008f2:	f641 0280 	movw	r2, #6272	; 0x1880
 80008f6:	f2c2 0200 	movt	r2, #8192	; 0x2000
 80008fa:	7810      	ldrb	r0, [r2, #0]
 80008fc:	1824      	adds	r4, r4, r0
 80008fe:	7014      	strb	r4, [r2, #0]
 8000900:	f101 0201 	add.w	r2, r1, #1
 8000904:	601a      	str	r2, [r3, #0]
 8000906:	2a05      	cmp	r2, #5
 8000908:	f040 818c 	bne.w	8000c24 <USART1_IRQHandler+0x410>
 800090c:	f44f 6000 	mov.w	r0, #2048	; 0x800
 8000910:	f2c4 0001 	movt	r0, #16385	; 0x4001
 8000914:	f44f 7180 	mov.w	r1, #256	; 0x100
 8000918:	f04f 0201 	mov.w	r2, #1
 800091c:	f7ff fd34 	bl	8000388 <GPIO_WriteBit>
 8000920:	f641 0298 	movw	r2, #6296	; 0x1898
 8000924:	f2c2 0200 	movt	r2, #8192	; 0x2000
 8000928:	f641 03a0 	movw	r3, #6304	; 0x18a0
 800092c:	f2c2 0300 	movt	r3, #8192	; 0x2000
 8000930:	78d8      	ldrb	r0, [r3, #3]
 8000932:	7899      	ldrb	r1, [r3, #2]
 8000934:	eb01 2100 	add.w	r1, r1, r0, lsl #8
 8000938:	8011      	strh	r1, [r2, #0]
 800093a:	f641 02b0 	movw	r2, #6320	; 0x18b0
 800093e:	f2c2 0200 	movt	r2, #8192	; 0x2000
 8000942:	7858      	ldrb	r0, [r3, #1]
 8000944:	7819      	ldrb	r1, [r3, #0]
 8000946:	eb01 2100 	add.w	r1, r1, r0, lsl #8
 800094a:	8011      	strh	r1, [r2, #0]
 800094c:	f641 028c 	movw	r2, #6284	; 0x188c
 8000950:	f2c2 0200 	movt	r2, #8192	; 0x2000
 8000954:	6812      	ldr	r2, [r2, #0]
 8000956:	7919      	ldrb	r1, [r3, #4]
 8000958:	f001 010f 	and.w	r1, r1, #15
 800095c:	7011      	strb	r1, [r2, #0]
 800095e:	f641 0280 	movw	r2, #6272	; 0x1880
 8000962:	f2c2 0200 	movt	r2, #8192	; 0x2000
 8000966:	7815      	ldrb	r5, [r2, #0]
 8000968:	791b      	ldrb	r3, [r3, #4]
 800096a:	f003 03f0 	and.w	r3, r3, #240	; 0xf0
 800096e:	2b50      	cmp	r3, #80	; 0x50
 8000970:	d135      	bne.n	80009de <USART1_IRQHandler+0x1ca>
 8000972:	4613      	mov	r3, r2
 8000974:	f04f 0200 	mov.w	r2, #0
 8000978:	701a      	strb	r2, [r3, #0]
 800097a:	f641 03ac 	movw	r3, #6316	; 0x18ac
 800097e:	f2c2 0300 	movt	r3, #8192	; 0x2000
 8000982:	f641 028c 	movw	r2, #6284	; 0x188c
 8000986:	f2c2 0200 	movt	r2, #8192	; 0x2000
 800098a:	6812      	ldr	r2, [r2, #0]
 800098c:	7810      	ldrb	r0, [r2, #0]
 800098e:	f641 0290 	movw	r2, #6288	; 0x1890
 8000992:	f2c2 0200 	movt	r2, #8192	; 0x2000
 8000996:	6811      	ldr	r1, [r2, #0]
 8000998:	f641 02b0 	movw	r2, #6320	; 0x18b0
 800099c:	f2c2 0200 	movt	r2, #8192	; 0x2000
 80009a0:	8812      	ldrh	r2, [r2, #0]
 80009a2:	f851 1020 	ldr.w	r1, [r1, r0, lsl #2]
 80009a6:	188a      	adds	r2, r1, r2
 80009a8:	601a      	str	r2, [r3, #0]
 80009aa:	f641 0394 	movw	r3, #6292	; 0x1894
 80009ae:	f2c2 0300 	movt	r3, #8192	; 0x2000
 80009b2:	f641 0298 	movw	r2, #6296	; 0x1898
 80009b6:	f2c2 0200 	movt	r2, #8192	; 0x2000
 80009ba:	8812      	ldrh	r2, [r2, #0]
 80009bc:	601a      	str	r2, [r3, #0]
 80009be:	f641 03b2 	movw	r3, #6322	; 0x18b2
 80009c2:	f2c2 0300 	movt	r3, #8192	; 0x2000
 80009c6:	f04f 0203 	mov.w	r2, #3
 80009ca:	701a      	strb	r2, [r3, #0]
 80009cc:	f641 0384 	movw	r3, #6276	; 0x1884
 80009d0:	f2c2 0300 	movt	r3, #8192	; 0x2000
 80009d4:	681b      	ldr	r3, [r3, #0]
 80009d6:	f04f 0250 	mov.w	r2, #80	; 0x50
 80009da:	701a      	strb	r2, [r3, #0]
 80009dc:	e025      	b.n	8000a2a <USART1_IRQHandler+0x216>
 80009de:	2ba0      	cmp	r3, #160	; 0xa0
 80009e0:	d113      	bne.n	8000a0a <USART1_IRQHandler+0x1f6>
 80009e2:	f641 03b2 	movw	r3, #6322	; 0x18b2
 80009e6:	f2c2 0300 	movt	r3, #8192	; 0x2000
 80009ea:	f04f 0202 	mov.w	r2, #2
 80009ee:	701a      	strb	r2, [r3, #0]
 80009f0:	f641 0394 	movw	r3, #6292	; 0x1894
 80009f4:	f2c2 0300 	movt	r3, #8192	; 0x2000
 80009f8:	f04f 0200 	mov.w	r2, #0
 80009fc:	601a      	str	r2, [r3, #0]
 80009fe:	f641 0380 	movw	r3, #6272	; 0x1880
 8000a02:	f2c2 0300 	movt	r3, #8192	; 0x2000
 8000a06:	701a      	strb	r2, [r3, #0]
 8000a08:	e00f      	b.n	8000a2a <USART1_IRQHandler+0x216>
 8000a0a:	f641 03b2 	movw	r3, #6322	; 0x18b2
 8000a0e:	f2c2 0300 	movt	r3, #8192	; 0x2000
 8000a12:	f04f 0200 	mov.w	r2, #0
 8000a16:	701a      	strb	r2, [r3, #0]
 8000a18:	f44f 6000 	mov.w	r0, #2048	; 0x800
 8000a1c:	f2c4 0001 	movt	r0, #16385	; 0x4001
 8000a20:	f44f 7180 	mov.w	r1, #256	; 0x100
 8000a24:	f7ff fcb0 	bl	8000388 <GPIO_WriteBit>
 8000a28:	bd70      	pop	{r4, r5, r6, pc}
 8000a2a:	f44f 5460 	mov.w	r4, #14336	; 0x3800
 8000a2e:	f2c4 0401 	movt	r4, #16385	; 0x4001
 8000a32:	4620      	mov	r0, r4
 8000a34:	f240 7127 	movw	r1, #1831	; 0x727
 8000a38:	f04f 0201 	mov.w	r2, #1
 8000a3c:	f000 faf8 	bl	8001030 <USART_ITConfig>
 8000a40:	4620      	mov	r0, r4
 8000a42:	4629      	mov	r1, r5
 8000a44:	f000 fb12 	bl	800106c <USART_SendData>
 8000a48:	bd70      	pop	{r4, r5, r6, pc}
 8000a4a:	b2c4      	uxtb	r4, r0
 8000a4c:	f641 0380 	movw	r3, #6272	; 0x1880
 8000a50:	f2c2 0300 	movt	r3, #8192	; 0x2000
 8000a54:	7819      	ldrb	r1, [r3, #0]
 8000a56:	1861      	adds	r1, r4, r1
 8000a58:	b2c9      	uxtb	r1, r1
 8000a5a:	7019      	strb	r1, [r3, #0]
 8000a5c:	f641 0394 	movw	r3, #6292	; 0x1894
 8000a60:	f2c2 0300 	movt	r3, #8192	; 0x2000
 8000a64:	681a      	ldr	r2, [r3, #0]
 8000a66:	f641 0398 	movw	r3, #6296	; 0x1898
 8000a6a:	f2c2 0300 	movt	r3, #8192	; 0x2000
 8000a6e:	881b      	ldrh	r3, [r3, #0]
 8000a70:	4293      	cmp	r3, r2
 8000a72:	d144      	bne.n	8000afe <USART1_IRQHandler+0x2ea>
 8000a74:	2937      	cmp	r1, #55	; 0x37
 8000a76:	d108      	bne.n	8000a8a <USART1_IRQHandler+0x276>
 8000a78:	f641 0384 	movw	r3, #6276	; 0x1884
 8000a7c:	f2c2 0300 	movt	r3, #8192	; 0x2000
 8000a80:	681b      	ldr	r3, [r3, #0]
 8000a82:	f04f 02a0 	mov.w	r2, #160	; 0xa0
 8000a86:	701a      	strb	r2, [r3, #0]
 8000a88:	e00e      	b.n	8000aa8 <USART1_IRQHandler+0x294>
 8000a8a:	f04f 0364 	mov.w	r3, #100	; 0x64
 8000a8e:	f103 33ff 	add.w	r3, r3, #4294967295
 8000a92:	b29b      	uxth	r3, r3
 8000a94:	2b00      	cmp	r3, #0
 8000a96:	d1fa      	bne.n	8000a8e <USART1_IRQHandler+0x27a>
 8000a98:	f641 0384 	movw	r3, #6276	; 0x1884
 8000a9c:	f2c2 0300 	movt	r3, #8192	; 0x2000
 8000aa0:	681b      	ldr	r3, [r3, #0]
 8000aa2:	f04f 0250 	mov.w	r2, #80	; 0x50
 8000aa6:	701a      	strb	r2, [r3, #0]
 8000aa8:	f44f 6000 	mov.w	r0, #2048	; 0x800
 8000aac:	f2c4 0001 	movt	r0, #16385	; 0x4001
 8000ab0:	f44f 7180 	mov.w	r1, #256	; 0x100
 8000ab4:	f04f 0201 	mov.w	r2, #1
 8000ab8:	f7ff fc66 	bl	8000388 <GPIO_WriteBit>
 8000abc:	f641 0380 	movw	r3, #6272	; 0x1880
 8000ac0:	f2c2 0300 	movt	r3, #8192	; 0x2000
 8000ac4:	781e      	ldrb	r6, [r3, #0]
 8000ac6:	f641 0394 	movw	r3, #6292	; 0x1894
 8000aca:	f2c2 0300 	movt	r3, #8192	; 0x2000
 8000ace:	f04f 0500 	mov.w	r5, #0
 8000ad2:	601d      	str	r5, [r3, #0]
 8000ad4:	f44f 5460 	mov.w	r4, #14336	; 0x3800
 8000ad8:	f2c4 0401 	movt	r4, #16385	; 0x4001
 8000adc:	4620      	mov	r0, r4
 8000ade:	f240 7127 	movw	r1, #1831	; 0x727
 8000ae2:	f04f 0201 	mov.w	r2, #1
 8000ae6:	f000 faa3 	bl	8001030 <USART_ITConfig>
 8000aea:	4620      	mov	r0, r4
 8000aec:	4631      	mov	r1, r6
 8000aee:	f000 fabd 	bl	800106c <USART_SendData>
 8000af2:	f641 03b2 	movw	r3, #6322	; 0x18b2
 8000af6:	f2c2 0300 	movt	r3, #8192	; 0x2000
 8000afa:	701d      	strb	r5, [r3, #0]
 8000afc:	e01c      	b.n	8000b38 <USART1_IRQHandler+0x324>
 8000afe:	f641 038c 	movw	r3, #6284	; 0x188c
 8000b02:	f2c2 0300 	movt	r3, #8192	; 0x2000
 8000b06:	681b      	ldr	r3, [r3, #0]
 8000b08:	7818      	ldrb	r0, [r3, #0]
 8000b0a:	f641 0390 	movw	r3, #6288	; 0x1890
 8000b0e:	f2c2 0300 	movt	r3, #8192	; 0x2000
 8000b12:	6819      	ldr	r1, [r3, #0]
 8000b14:	f641 03b0 	movw	r3, #6320	; 0x18b0
 8000b18:	f2c2 0300 	movt	r3, #8192	; 0x2000
 8000b1c:	881b      	ldrh	r3, [r3, #0]
 8000b1e:	f851 1020 	ldr.w	r1, [r1, r0, lsl #2]
 8000b22:	188a      	adds	r2, r1, r2
 8000b24:	54d4      	strb	r4, [r2, r3]
 8000b26:	f641 0394 	movw	r3, #6292	; 0x1894
 8000b2a:	f2c2 0300 	movt	r3, #8192	; 0x2000
 8000b2e:	681a      	ldr	r2, [r3, #0]
 8000b30:	f102 0201 	add.w	r2, r2, #1
 8000b34:	601a      	str	r2, [r3, #0]
 8000b36:	bd70      	pop	{r4, r5, r6, pc}
 8000b38:	f44f 5360 	mov.w	r3, #14336	; 0x3800
 8000b3c:	f2c4 0301 	movt	r3, #16385	; 0x4001
 8000b40:	881b      	ldrh	r3, [r3, #0]
 8000b42:	f013 0f80 	tst.w	r3, #128	; 0x80
 8000b46:	d06d      	beq.n	8000c24 <USART1_IRQHandler+0x410>
 8000b48:	f641 0394 	movw	r3, #6292	; 0x1894
 8000b4c:	f2c2 0300 	movt	r3, #8192	; 0x2000
 8000b50:	681b      	ldr	r3, [r3, #0]
 8000b52:	2b00      	cmp	r3, #0
 8000b54:	dd1f      	ble.n	8000b96 <USART1_IRQHandler+0x382>
 8000b56:	f44f 5060 	mov.w	r0, #14336	; 0x3800
 8000b5a:	f2c4 0001 	movt	r0, #16385	; 0x4001
 8000b5e:	f641 04ac 	movw	r4, #6316	; 0x18ac
 8000b62:	f2c2 0400 	movt	r4, #8192	; 0x2000
 8000b66:	6823      	ldr	r3, [r4, #0]
 8000b68:	7819      	ldrb	r1, [r3, #0]
 8000b6a:	f000 fa7f 	bl	800106c <USART_SendData>
 8000b6e:	f641 0380 	movw	r3, #6272	; 0x1880
 8000b72:	f2c2 0300 	movt	r3, #8192	; 0x2000
 8000b76:	6822      	ldr	r2, [r4, #0]
 8000b78:	f812 0b01 	ldrb.w	r0, [r2], #1
 8000b7c:	7819      	ldrb	r1, [r3, #0]
 8000b7e:	1841      	adds	r1, r0, r1
 8000b80:	7019      	strb	r1, [r3, #0]
 8000b82:	6022      	str	r2, [r4, #0]
 8000b84:	f641 0394 	movw	r3, #6292	; 0x1894
 8000b88:	f2c2 0300 	movt	r3, #8192	; 0x2000
 8000b8c:	681a      	ldr	r2, [r3, #0]
 8000b8e:	f102 32ff 	add.w	r2, r2, #4294967295
 8000b92:	601a      	str	r2, [r3, #0]
 8000b94:	bd70      	pop	{r4, r5, r6, pc}
 8000b96:	f44f 5360 	mov.w	r3, #14336	; 0x3800
 8000b9a:	f2c4 0301 	movt	r3, #16385	; 0x4001
 8000b9e:	881b      	ldrh	r3, [r3, #0]
 8000ba0:	f013 0f40 	tst.w	r3, #64	; 0x40
 8000ba4:	d03e      	beq.n	8000c24 <USART1_IRQHandler+0x410>
 8000ba6:	f44f 5460 	mov.w	r4, #14336	; 0x3800
 8000baa:	f2c4 0401 	movt	r4, #16385	; 0x4001
 8000bae:	4620      	mov	r0, r4
 8000bb0:	f240 7127 	movw	r1, #1831	; 0x727
 8000bb4:	f04f 0200 	mov.w	r2, #0
 8000bb8:	f000 fa3a 	bl	8001030 <USART_ITConfig>
 8000bbc:	f04f 0300 	mov.w	r3, #0
 8000bc0:	8023      	strh	r3, [r4, #0]
 8000bc2:	f641 03b2 	movw	r3, #6322	; 0x18b2
 8000bc6:	f2c2 0300 	movt	r3, #8192	; 0x2000
 8000bca:	781b      	ldrb	r3, [r3, #0]
 8000bcc:	2b02      	cmp	r3, #2
 8000bce:	d80a      	bhi.n	8000be6 <USART1_IRQHandler+0x3d2>
 8000bd0:	f44f 6000 	mov.w	r0, #2048	; 0x800
 8000bd4:	f2c4 0001 	movt	r0, #16385	; 0x4001
 8000bd8:	f44f 7180 	mov.w	r1, #256	; 0x100
 8000bdc:	f04f 0200 	mov.w	r2, #0
 8000be0:	f7ff fbd2 	bl	8000388 <GPIO_WriteBit>
 8000be4:	bd70      	pop	{r4, r5, r6, pc}
 8000be6:	f641 03b2 	movw	r3, #6322	; 0x18b2
 8000bea:	f2c2 0300 	movt	r3, #8192	; 0x2000
 8000bee:	f04f 0200 	mov.w	r2, #0
 8000bf2:	701a      	strb	r2, [r3, #0]
 8000bf4:	f641 0394 	movw	r3, #6292	; 0x1894
 8000bf8:	f2c2 0300 	movt	r3, #8192	; 0x2000
 8000bfc:	601a      	str	r2, [r3, #0]
 8000bfe:	f44f 5460 	mov.w	r4, #14336	; 0x3800
 8000c02:	f2c4 0401 	movt	r4, #16385	; 0x4001
 8000c06:	4620      	mov	r0, r4
 8000c08:	f240 7127 	movw	r1, #1831	; 0x727
 8000c0c:	f04f 0201 	mov.w	r2, #1
 8000c10:	f000 fa0e 	bl	8001030 <USART_ITConfig>
 8000c14:	f641 0380 	movw	r3, #6272	; 0x1880
 8000c18:	f2c2 0300 	movt	r3, #8192	; 0x2000
 8000c1c:	7819      	ldrb	r1, [r3, #0]
 8000c1e:	4620      	mov	r0, r4
 8000c20:	f000 fa24 	bl	800106c <USART_SendData>
 8000c24:	bd70      	pop	{r4, r5, r6, pc}
 8000c26:	bf00      	nop

08000c28 <USART_PC_Configuration>:
 8000c28:	e92d 43f0 	stmdb	sp!, {r4, r5, r6, r7, r8, r9, lr}
 8000c2c:	b087      	sub	sp, #28
 8000c2e:	4606      	mov	r6, r0
 8000c30:	460c      	mov	r4, r1
 8000c32:	4615      	mov	r5, r2
 8000c34:	461f      	mov	r7, r3
 8000c36:	f44f 4080 	mov.w	r0, #16384	; 0x4000
 8000c3a:	f04f 0101 	mov.w	r1, #1
 8000c3e:	f000 f917 	bl	8000e70 <RCC_APB2PeriphClockCmd>
 8000c42:	f641 0384 	movw	r3, #6276	; 0x1884
 8000c46:	f2c2 0300 	movt	r3, #8192	; 0x2000
 8000c4a:	601d      	str	r5, [r3, #0]
 8000c4c:	f641 0390 	movw	r3, #6288	; 0x1890
 8000c50:	f2c2 0300 	movt	r3, #8192	; 0x2000
 8000c54:	601c      	str	r4, [r3, #0]
 8000c56:	f641 039c 	movw	r3, #6300	; 0x189c
 8000c5a:	f2c2 0300 	movt	r3, #8192	; 0x2000
 8000c5e:	601e      	str	r6, [r3, #0]
 8000c60:	f641 038c 	movw	r3, #6284	; 0x188c
 8000c64:	f2c2 0300 	movt	r3, #8192	; 0x2000
 8000c68:	601f      	str	r7, [r3, #0]
 8000c6a:	f04f 0325 	mov.w	r3, #37	; 0x25
 8000c6e:	f88d 3000 	strb.w	r3, [sp]
 8000c72:	f04f 0305 	mov.w	r3, #5
 8000c76:	f88d 3001 	strb.w	r3, [sp, #1]
 8000c7a:	f88d 3002 	strb.w	r3, [sp, #2]
 8000c7e:	f04f 0701 	mov.w	r7, #1
 8000c82:	f88d 7003 	strb.w	r7, [sp, #3]
 8000c86:	4668      	mov	r0, sp
 8000c88:	f000 fd58 	bl	800173c <NVIC_Init>
 8000c8c:	f44f 7300 	mov.w	r3, #512	; 0x200
 8000c90:	f8ad 3004 	strh.w	r3, [sp, #4]
 8000c94:	f04f 0318 	mov.w	r3, #24
 8000c98:	f88d 3007 	strb.w	r3, [sp, #7]
 8000c9c:	f04f 0303 	mov.w	r3, #3
 8000ca0:	f88d 3006 	strb.w	r3, [sp, #6]
 8000ca4:	f44f 6400 	mov.w	r4, #2048	; 0x800
 8000ca8:	f2c4 0401 	movt	r4, #16385	; 0x4001
 8000cac:	4620      	mov	r0, r4
 8000cae:	a901      	add	r1, sp, #4
 8000cb0:	f7ff fb0a 	bl	80002c8 <GPIO_Init>
 8000cb4:	f44f 7880 	mov.w	r8, #256	; 0x100
 8000cb8:	f8ad 8004 	strh.w	r8, [sp, #4]
 8000cbc:	f04f 0310 	mov.w	r3, #16
 8000cc0:	f88d 3007 	strb.w	r3, [sp, #7]
 8000cc4:	4620      	mov	r0, r4
 8000cc6:	a901      	add	r1, sp, #4
 8000cc8:	f7ff fafe 	bl	80002c8 <GPIO_Init>
 8000ccc:	f44f 6380 	mov.w	r3, #1024	; 0x400
 8000cd0:	f8ad 3004 	strh.w	r3, [sp, #4]
 8000cd4:	f04f 0304 	mov.w	r3, #4
 8000cd8:	f88d 3007 	strb.w	r3, [sp, #7]
 8000cdc:	4620      	mov	r0, r4
 8000cde:	eb0d 0103 	add.w	r1, sp, r3
 8000ce2:	f7ff faf1 	bl	80002c8 <GPIO_Init>
 8000ce6:	f8bd 3038 	ldrh.w	r3, [sp, #56]	; 0x38
 8000cea:	9302      	str	r3, [sp, #8]
 8000cec:	f44f 5380 	mov.w	r3, #4096	; 0x1000
 8000cf0:	f8ad 300c 	strh.w	r3, [sp, #12]
 8000cf4:	f04f 0600 	mov.w	r6, #0
 8000cf8:	46b1      	mov	r9, r6
 8000cfa:	f8ad 600e 	strh.w	r6, [sp, #14]
 8000cfe:	f8ad 6010 	strh.w	r6, [sp, #16]
 8000d02:	f8ad 6014 	strh.w	r6, [sp, #20]
 8000d06:	f04f 030c 	mov.w	r3, #12
 8000d0a:	f8ad 3012 	strh.w	r3, [sp, #18]
 8000d0e:	f44f 5560 	mov.w	r5, #14336	; 0x3800
 8000d12:	f2c4 0501 	movt	r5, #16385	; 0x4001
 8000d16:	4628      	mov	r0, r5
 8000d18:	a902      	add	r1, sp, #8
 8000d1a:	f000 f8fd 	bl	8000f18 <USART_Init>
 8000d1e:	4628      	mov	r0, r5
 8000d20:	4639      	mov	r1, r7
 8000d22:	f000 f975 	bl	8001010 <USART_Cmd>
 8000d26:	4628      	mov	r0, r5
 8000d28:	f240 5125 	movw	r1, #1317	; 0x525
 8000d2c:	463a      	mov	r2, r7
 8000d2e:	f000 f97f 	bl	8001030 <USART_ITConfig>
 8000d32:	4620      	mov	r0, r4
 8000d34:	4641      	mov	r1, r8
 8000d36:	4632      	mov	r2, r6
 8000d38:	f7ff fb26 	bl	8000388 <GPIO_WriteBit>
 8000d3c:	f641 03b2 	movw	r3, #6322	; 0x18b2
 8000d40:	f2c2 0300 	movt	r3, #8192	; 0x2000
 8000d44:	701e      	strb	r6, [r3, #0]
 8000d46:	b007      	add	sp, #28
 8000d48:	e8bd 83f0 	ldmia.w	sp!, {r4, r5, r6, r7, r8, r9, pc}

08000d4c <RCC_GetClocksFreq>:
 8000d4c:	b430      	push	{r4, r5}
 8000d4e:	f44f 5380 	mov.w	r3, #4096	; 0x1000
 8000d52:	f2c4 0302 	movt	r3, #16386	; 0x4002
 8000d56:	685b      	ldr	r3, [r3, #4]
 8000d58:	f003 030c 	and.w	r3, r3, #12
 8000d5c:	2b04      	cmp	r3, #4
 8000d5e:	d009      	beq.n	8000d74 <RCC_GetClocksFreq+0x28>
 8000d60:	2b08      	cmp	r3, #8
 8000d62:	d00d      	beq.n	8000d80 <RCC_GetClocksFreq+0x34>
 8000d64:	2b00      	cmp	r3, #0
 8000d66:	d155      	bne.n	8000e14 <RCC_GetClocksFreq+0xc8>
 8000d68:	f44f 5390 	mov.w	r3, #4608	; 0x1200
 8000d6c:	f2c0 037a 	movt	r3, #122	; 0x7a
 8000d70:	6003      	str	r3, [r0, #0]
 8000d72:	e054      	b.n	8000e1e <RCC_GetClocksFreq+0xd2>
 8000d74:	f647 0340 	movw	r3, #30784	; 0x7840
 8000d78:	f2c0 137d 	movt	r3, #381	; 0x17d
 8000d7c:	6003      	str	r3, [r0, #0]
 8000d7e:	e04e      	b.n	8000e1e <RCC_GetClocksFreq+0xd2>
 8000d80:	f44f 5380 	mov.w	r3, #4096	; 0x1000
 8000d84:	f2c4 0302 	movt	r3, #16386	; 0x4002
 8000d88:	6859      	ldr	r1, [r3, #4]
 8000d8a:	685a      	ldr	r2, [r3, #4]
 8000d8c:	f402 3280 	and.w	r2, r2, #65536	; 0x10000
 8000d90:	f3c1 4383 	ubfx	r3, r1, #18, #4
 8000d94:	2b0d      	cmp	r3, #13
 8000d96:	bf14      	ite	ne
 8000d98:	3302      	addne	r3, #2
 8000d9a:	2306      	moveq	r3, #6
 8000d9c:	b93a      	cbnz	r2, 8000dae <RCC_GetClocksFreq+0x62>
 8000d9e:	f44f 6210 	mov.w	r2, #2304	; 0x900
 8000da2:	f2c0 023d 	movt	r2, #61	; 0x3d
 8000da6:	fb02 f303 	mul.w	r3, r2, r3
 8000daa:	6003      	str	r3, [r0, #0]
 8000dac:	e037      	b.n	8000e1e <RCC_GetClocksFreq+0xd2>
 8000dae:	f44f 5280 	mov.w	r2, #4096	; 0x1000
 8000db2:	f2c4 0202 	movt	r2, #16386	; 0x4002
 8000db6:	6ad1      	ldr	r1, [r2, #44]	; 0x2c
 8000db8:	6ad2      	ldr	r2, [r2, #44]	; 0x2c
 8000dba:	f002 020f 	and.w	r2, r2, #15
 8000dbe:	f102 0201 	add.w	r2, r2, #1
 8000dc2:	f411 3f80 	tst.w	r1, #65536	; 0x10000
 8000dc6:	d109      	bne.n	8000ddc <RCC_GetClocksFreq+0x90>
 8000dc8:	f647 0140 	movw	r1, #30784	; 0x7840
 8000dcc:	f2c0 117d 	movt	r1, #381	; 0x17d
 8000dd0:	fbb1 f2f2 	udiv	r2, r1, r2
 8000dd4:	fb02 f303 	mul.w	r3, r2, r3
 8000dd8:	6003      	str	r3, [r0, #0]
 8000dda:	e020      	b.n	8000e1e <RCC_GetClocksFreq+0xd2>
 8000ddc:	f44f 5180 	mov.w	r1, #4096	; 0x1000
 8000de0:	f2c4 0102 	movt	r1, #16386	; 0x4002
 8000de4:	6acd      	ldr	r5, [r1, #44]	; 0x2c
 8000de6:	6acc      	ldr	r4, [r1, #44]	; 0x2c
 8000de8:	f3c5 1503 	ubfx	r5, r5, #4, #4
 8000dec:	f105 0501 	add.w	r5, r5, #1
 8000df0:	f647 0140 	movw	r1, #30784	; 0x7840
 8000df4:	f2c0 117d 	movt	r1, #381	; 0x17d
 8000df8:	fbb1 f1f5 	udiv	r1, r1, r5
 8000dfc:	f3c4 2403 	ubfx	r4, r4, #8, #4
 8000e00:	f104 0402 	add.w	r4, r4, #2
 8000e04:	fb04 f101 	mul.w	r1, r4, r1
 8000e08:	fbb1 f2f2 	udiv	r2, r1, r2
 8000e0c:	fb02 f303 	mul.w	r3, r2, r3
 8000e10:	6003      	str	r3, [r0, #0]
 8000e12:	e004      	b.n	8000e1e <RCC_GetClocksFreq+0xd2>
 8000e14:	f44f 5390 	mov.w	r3, #4608	; 0x1200
 8000e18:	f2c0 037a 	movt	r3, #122	; 0x7a
 8000e1c:	6003      	str	r3, [r0, #0]
 8000e1e:	f44f 5280 	mov.w	r2, #4096	; 0x1000
 8000e22:	f2c4 0202 	movt	r2, #16386	; 0x4002
 8000e26:	6851      	ldr	r1, [r2, #4]
 8000e28:	f3c1 1103 	ubfx	r1, r1, #4, #4
 8000e2c:	f240 0300 	movw	r3, #0
 8000e30:	f2c2 0300 	movt	r3, #8192	; 0x2000
 8000e34:	5c59      	ldrb	r1, [r3, r1]
 8000e36:	6804      	ldr	r4, [r0, #0]
 8000e38:	fa24 f101 	lsr.w	r1, r4, r1
 8000e3c:	6041      	str	r1, [r0, #4]
 8000e3e:	6854      	ldr	r4, [r2, #4]
 8000e40:	f3c4 2402 	ubfx	r4, r4, #8, #3
 8000e44:	5d1c      	ldrb	r4, [r3, r4]
 8000e46:	fa21 f404 	lsr.w	r4, r1, r4
 8000e4a:	6084      	str	r4, [r0, #8]
 8000e4c:	6854      	ldr	r4, [r2, #4]
 8000e4e:	f3c4 24c2 	ubfx	r4, r4, #11, #3
 8000e52:	5d1c      	ldrb	r4, [r3, r4]
 8000e54:	fa21 f104 	lsr.w	r1, r1, r4
 8000e58:	60c1      	str	r1, [r0, #12]
 8000e5a:	6852      	ldr	r2, [r2, #4]
 8000e5c:	f3c2 3281 	ubfx	r2, r2, #14, #2
 8000e60:	189b      	adds	r3, r3, r2
 8000e62:	7c1b      	ldrb	r3, [r3, #16]
 8000e64:	fbb1 f1f3 	udiv	r1, r1, r3
 8000e68:	6101      	str	r1, [r0, #16]
 8000e6a:	bc30      	pop	{r4, r5}
 8000e6c:	4770      	bx	lr
 8000e6e:	bf00      	nop

08000e70 <RCC_APB2PeriphClockCmd>:
 8000e70:	b139      	cbz	r1, 8000e82 <RCC_APB2PeriphClockCmd+0x12>
 8000e72:	f44f 5380 	mov.w	r3, #4096	; 0x1000
 8000e76:	f2c4 0302 	movt	r3, #16386	; 0x4002
 8000e7a:	699a      	ldr	r2, [r3, #24]
 8000e7c:	4310      	orrs	r0, r2
 8000e7e:	6198      	str	r0, [r3, #24]
 8000e80:	4770      	bx	lr
 8000e82:	f44f 5380 	mov.w	r3, #4096	; 0x1000
 8000e86:	f2c4 0302 	movt	r3, #16386	; 0x4002
 8000e8a:	699a      	ldr	r2, [r3, #24]
 8000e8c:	ea22 0000 	bic.w	r0, r2, r0
 8000e90:	6198      	str	r0, [r3, #24]
 8000e92:	4770      	bx	lr

08000e94 <RCC_APB1PeriphClockCmd>:
 8000e94:	b139      	cbz	r1, 8000ea6 <RCC_APB1PeriphClockCmd+0x12>
 8000e96:	f44f 5380 	mov.w	r3, #4096	; 0x1000
 8000e9a:	f2c4 0302 	movt	r3, #16386	; 0x4002
 8000e9e:	69da      	ldr	r2, [r3, #28]
 8000ea0:	4310      	orrs	r0, r2
 8000ea2:	61d8      	str	r0, [r3, #28]
 8000ea4:	4770      	bx	lr
 8000ea6:	f44f 5380 	mov.w	r3, #4096	; 0x1000
 8000eaa:	f2c4 0302 	movt	r3, #16386	; 0x4002
 8000eae:	69da      	ldr	r2, [r3, #28]
 8000eb0:	ea22 0000 	bic.w	r0, r2, r0
 8000eb4:	61d8      	str	r0, [r3, #28]
 8000eb6:	4770      	bx	lr

08000eb8 <Default_Reset_Handler>:
 8000eb8:	b508      	push	{r3, lr}
 8000eba:	4b12      	ldr	r3, [pc, #72]	; (8000f04 <zero_loop+0x16>)
 8000ebc:	4a12      	ldr	r2, [pc, #72]	; (8000f08 <zero_loop+0x1a>)
 8000ebe:	429a      	cmp	r2, r3
 8000ec0:	d211      	bcs.n	8000ee6 <Default_Reset_Handler+0x2e>
 8000ec2:	f241 72d0 	movw	r2, #6096	; 0x17d0
 8000ec6:	f6c0 0200 	movt	r2, #2048	; 0x800
 8000eca:	f240 0300 	movw	r3, #0
 8000ece:	f2c2 0300 	movt	r3, #8192	; 0x2000
 8000ed2:	f240 0014 	movw	r0, #20
 8000ed6:	f2c2 0000 	movt	r0, #8192	; 0x2000
 8000eda:	f852 1b04 	ldr.w	r1, [r2], #4
 8000ede:	f843 1b04 	str.w	r1, [r3], #4
 8000ee2:	4283      	cmp	r3, r0
 8000ee4:	d3f9      	bcc.n	8000eda <Default_Reset_Handler+0x22>
 8000ee6:	4809      	ldr	r0, [pc, #36]	; (8000f0c <zero_loop+0x1e>)
 8000ee8:	4909      	ldr	r1, [pc, #36]	; (8000f10 <zero_loop+0x22>)
 8000eea:	f04f 0200 	mov.w	r2, #0

08000eee <zero_loop>:
 8000eee:	4288      	cmp	r0, r1
 8000ef0:	bfb8      	it	lt
 8000ef2:	f840 2b04 	strlt.w	r2, [r0], #4
 8000ef6:	dbfa      	blt.n	8000eee <zero_loop>
 8000ef8:	f7ff f92c 	bl	8000154 <SystemInit>
 8000efc:	f7ff fc84 	bl	8000808 <main>
 8000f00:	bd08      	pop	{r3, pc}
 8000f02:	bf00      	nop
 8000f04:	20000014 	.word	0x20000014
 8000f08:	20000000 	.word	0x20000000
 8000f0c:	20000014 	.word	0x20000014
 8000f10:	20005aa4 	.word	0x20005aa4

08000f14 <ADC1_2_IRQHandler>:
 8000f14:	e7fe      	b.n	8000f14 <ADC1_2_IRQHandler>
 8000f16:	bf00      	nop

08000f18 <USART_Init>:
 8000f18:	b530      	push	{r4, r5, lr}
 8000f1a:	b087      	sub	sp, #28
 8000f1c:	4604      	mov	r4, r0
 8000f1e:	460d      	mov	r5, r1
 8000f20:	8a03      	ldrh	r3, [r0, #16]
 8000f22:	f423 5340 	bic.w	r3, r3, #12288	; 0x3000
 8000f26:	ea4f 4303 	mov.w	r3, r3, lsl #16
 8000f2a:	ea4f 4313 	mov.w	r3, r3, lsr #16
 8000f2e:	88ca      	ldrh	r2, [r1, #6]
 8000f30:	4313      	orrs	r3, r2
 8000f32:	8203      	strh	r3, [r0, #16]
 8000f34:	8983      	ldrh	r3, [r0, #12]
 8000f36:	f423 53b0 	bic.w	r3, r3, #5632	; 0x1600
 8000f3a:	f023 030c 	bic.w	r3, r3, #12
 8000f3e:	ea4f 4303 	mov.w	r3, r3, lsl #16
 8000f42:	ea4f 4313 	mov.w	r3, r3, lsr #16
 8000f46:	8909      	ldrh	r1, [r1, #8]
 8000f48:	88aa      	ldrh	r2, [r5, #4]
 8000f4a:	430a      	orrs	r2, r1
 8000f4c:	8969      	ldrh	r1, [r5, #10]
 8000f4e:	430a      	orrs	r2, r1
 8000f50:	b292      	uxth	r2, r2
 8000f52:	4313      	orrs	r3, r2
 8000f54:	8183      	strh	r3, [r0, #12]
 8000f56:	8a83      	ldrh	r3, [r0, #20]
 8000f58:	f423 7340 	bic.w	r3, r3, #768	; 0x300
 8000f5c:	ea4f 4303 	mov.w	r3, r3, lsl #16
 8000f60:	ea4f 4313 	mov.w	r3, r3, lsr #16
 8000f64:	89aa      	ldrh	r2, [r5, #12]
 8000f66:	4313      	orrs	r3, r2
 8000f68:	8283      	strh	r3, [r0, #20]
 8000f6a:	a801      	add	r0, sp, #4
 8000f6c:	f7ff feee 	bl	8000d4c <RCC_GetClocksFreq>
 8000f70:	f44f 5360 	mov.w	r3, #14336	; 0x3800
 8000f74:	f2c4 0301 	movt	r3, #16385	; 0x4001
 8000f78:	429c      	cmp	r4, r3
 8000f7a:	bf0c      	ite	eq
 8000f7c:	9a04      	ldreq	r2, [sp, #16]
 8000f7e:	9a03      	ldrne	r2, [sp, #12]
 8000f80:	89a3      	ldrh	r3, [r4, #12]
 8000f82:	b21b      	sxth	r3, r3
 8000f84:	2b00      	cmp	r3, #0
 8000f86:	da09      	bge.n	8000f9c <USART_Init+0x84>
 8000f88:	eb02 0282 	add.w	r2, r2, r2, lsl #2
 8000f8c:	eb02 0282 	add.w	r2, r2, r2, lsl #2
 8000f90:	682b      	ldr	r3, [r5, #0]
 8000f92:	ea4f 0343 	mov.w	r3, r3, lsl #1
 8000f96:	fbb2 f2f3 	udiv	r2, r2, r3
 8000f9a:	e008      	b.n	8000fae <USART_Init+0x96>
 8000f9c:	eb02 0282 	add.w	r2, r2, r2, lsl #2
 8000fa0:	eb02 0282 	add.w	r2, r2, r2, lsl #2
 8000fa4:	6829      	ldr	r1, [r5, #0]
 8000fa6:	ea4f 0181 	mov.w	r1, r1, lsl #2
 8000faa:	fbb2 f2f1 	udiv	r2, r2, r1
 8000fae:	f248 531f 	movw	r3, #34079	; 0x851f
 8000fb2:	f2c5 13eb 	movt	r3, #20971	; 0x51eb
 8000fb6:	fba3 1302 	umull	r1, r3, r3, r2
 8000fba:	ea4f 1353 	mov.w	r3, r3, lsr #5
 8000fbe:	ea4f 1503 	mov.w	r5, r3, lsl #4
 8000fc2:	f04f 0064 	mov.w	r0, #100	; 0x64
 8000fc6:	fb03 2310 	mls	r3, r3, r0, r2
 8000fca:	89a0      	ldrh	r0, [r4, #12]
 8000fcc:	b200      	sxth	r0, r0
 8000fce:	2800      	cmp	r0, #0
 8000fd0:	da0d      	bge.n	8000fee <USART_Init+0xd6>
 8000fd2:	ea4f 03c3 	mov.w	r3, r3, lsl #3
 8000fd6:	f103 0332 	add.w	r3, r3, #50	; 0x32
 8000fda:	f248 511f 	movw	r1, #34079	; 0x851f
 8000fde:	f2c5 11eb 	movt	r1, #20971	; 0x51eb
 8000fe2:	fba1 2103 	umull	r2, r1, r1, r3
 8000fe6:	f3c1 1142 	ubfx	r1, r1, #5, #3
 8000fea:	4329      	orrs	r1, r5
 8000fec:	e00c      	b.n	8001008 <USART_Init+0xf0>
 8000fee:	ea4f 1303 	mov.w	r3, r3, lsl #4
 8000ff2:	f103 0332 	add.w	r3, r3, #50	; 0x32
 8000ff6:	f248 511f 	movw	r1, #34079	; 0x851f
 8000ffa:	f2c5 11eb 	movt	r1, #20971	; 0x51eb
 8000ffe:	fba1 2103 	umull	r2, r1, r1, r3
 8001002:	f3c1 1143 	ubfx	r1, r1, #5, #4
 8001006:	4329      	orrs	r1, r5
 8001008:	b289      	uxth	r1, r1
 800100a:	8121      	strh	r1, [r4, #8]
 800100c:	b007      	add	sp, #28
 800100e:	bd30      	pop	{r4, r5, pc}

08001010 <USART_Cmd>:
 8001010:	b129      	cbz	r1, 800101e <USART_Cmd+0xe>
 8001012:	8983      	ldrh	r3, [r0, #12]
 8001014:	b29b      	uxth	r3, r3
 8001016:	f443 5300 	orr.w	r3, r3, #8192	; 0x2000
 800101a:	8183      	strh	r3, [r0, #12]
 800101c:	4770      	bx	lr
 800101e:	8983      	ldrh	r3, [r0, #12]
 8001020:	f423 5300 	bic.w	r3, r3, #8192	; 0x2000
 8001024:	ea4f 4303 	mov.w	r3, r3, lsl #16
 8001028:	ea4f 4313 	mov.w	r3, r3, lsr #16
 800102c:	8183      	strh	r3, [r0, #12]
 800102e:	4770      	bx	lr

08001030 <USART_ITConfig>:
 8001030:	b410      	push	{r4}
 8001032:	f3c1 1342 	ubfx	r3, r1, #5, #3
 8001036:	f001 011f 	and.w	r1, r1, #31
 800103a:	f04f 0401 	mov.w	r4, #1
 800103e:	fa04 f101 	lsl.w	r1, r4, r1
 8001042:	42a3      	cmp	r3, r4
 8001044:	d102      	bne.n	800104c <USART_ITConfig+0x1c>
 8001046:	f100 000c 	add.w	r0, r0, #12
 800104a:	e003      	b.n	8001054 <USART_ITConfig+0x24>
 800104c:	2b02      	cmp	r3, #2
 800104e:	bf0c      	ite	eq
 8001050:	3010      	addeq	r0, #16
 8001052:	3014      	addne	r0, #20
 8001054:	b11a      	cbz	r2, 800105e <USART_ITConfig+0x2e>
 8001056:	6803      	ldr	r3, [r0, #0]
 8001058:	4319      	orrs	r1, r3
 800105a:	6001      	str	r1, [r0, #0]
 800105c:	e003      	b.n	8001066 <USART_ITConfig+0x36>
 800105e:	6803      	ldr	r3, [r0, #0]
 8001060:	ea23 0101 	bic.w	r1, r3, r1
 8001064:	6001      	str	r1, [r0, #0]
 8001066:	bc10      	pop	{r4}
 8001068:	4770      	bx	lr
 800106a:	bf00      	nop

0800106c <USART_SendData>:
 800106c:	ea4f 51c1 	mov.w	r1, r1, lsl #23
 8001070:	ea4f 51d1 	mov.w	r1, r1, lsr #23
 8001074:	8081      	strh	r1, [r0, #4]
 8001076:	4770      	bx	lr

08001078 <USART_ReceiveData>:
 8001078:	8880      	ldrh	r0, [r0, #4]
 800107a:	ea4f 50c0 	mov.w	r0, r0, lsl #23
 800107e:	ea4f 50d0 	mov.w	r0, r0, lsr #23
 8001082:	4770      	bx	lr

08001084 <USART_ClearITPendingBit>:
 8001084:	ea4f 2111 	mov.w	r1, r1, lsr #8
 8001088:	f04f 0301 	mov.w	r3, #1
 800108c:	fa03 f301 	lsl.w	r3, r3, r1
 8001090:	ea6f 0303 	mvn.w	r3, r3
 8001094:	b29b      	uxth	r3, r3
 8001096:	8003      	strh	r3, [r0, #0]
 8001098:	4770      	bx	lr
 800109a:	bf00      	nop

0800109c <CRCCalc>:
 800109c:	b470      	push	{r4, r5, r6}
 800109e:	b1d9      	cbz	r1, 80010d8 <CRCCalc+0x3c>
 80010a0:	4605      	mov	r5, r0
 80010a2:	f64f 70ff 	movw	r0, #65535	; 0xffff
 80010a6:	f04f 0608 	mov.w	r6, #8
 80010aa:	f24a 0401 	movw	r4, #40961	; 0xa001
 80010ae:	f6cf 74ff 	movt	r4, #65535	; 0xffff
 80010b2:	f815 3b01 	ldrb.w	r3, [r5], #1
 80010b6:	4058      	eors	r0, r3
 80010b8:	4633      	mov	r3, r6
 80010ba:	f000 0201 	and.w	r2, r0, #1
 80010be:	ea4f 0050 	mov.w	r0, r0, lsr #1
 80010c2:	b10a      	cbz	r2, 80010c8 <CRCCalc+0x2c>
 80010c4:	4060      	eors	r0, r4
 80010c6:	b280      	uxth	r0, r0
 80010c8:	f103 33ff 	add.w	r3, r3, #4294967295
 80010cc:	b2db      	uxtb	r3, r3
 80010ce:	2b00      	cmp	r3, #0
 80010d0:	d1f3      	bne.n	80010ba <CRCCalc+0x1e>
 80010d2:	3901      	subs	r1, #1
 80010d4:	d1ed      	bne.n	80010b2 <CRCCalc+0x16>
 80010d6:	e001      	b.n	80010dc <CRCCalc+0x40>
 80010d8:	f64f 70ff 	movw	r0, #65535	; 0xffff
 80010dc:	bc70      	pop	{r4, r5, r6}
 80010de:	4770      	bx	lr

080010e0 <USART_OUT_Configuration>:
 80010e0:	e92d 47f0 	stmdb	sp!, {r4, r5, r6, r7, r8, r9, sl, lr}
 80010e4:	b086      	sub	sp, #24
 80010e6:	4606      	mov	r6, r0
 80010e8:	f44f 2080 	mov.w	r0, #262144	; 0x40000
 80010ec:	f04f 0101 	mov.w	r1, #1
 80010f0:	f7ff fed0 	bl	8000e94 <RCC_APB1PeriphClockCmd>
 80010f4:	f04f 0327 	mov.w	r3, #39	; 0x27
 80010f8:	f88d 3000 	strb.w	r3, [sp]
 80010fc:	f04f 0305 	mov.w	r3, #5
 8001100:	f88d 3001 	strb.w	r3, [sp, #1]
 8001104:	f88d 3002 	strb.w	r3, [sp, #2]
 8001108:	f04f 0701 	mov.w	r7, #1
 800110c:	f88d 7003 	strb.w	r7, [sp, #3]
 8001110:	4668      	mov	r0, sp
 8001112:	f000 fb13 	bl	800173c <NVIC_Init>
 8001116:	f44f 6880 	mov.w	r8, #1024	; 0x400
 800111a:	f8ad 8004 	strh.w	r8, [sp, #4]
 800111e:	f04f 0318 	mov.w	r3, #24
 8001122:	f88d 3007 	strb.w	r3, [sp, #7]
 8001126:	f04f 0303 	mov.w	r3, #3
 800112a:	f88d 3006 	strb.w	r3, [sp, #6]
 800112e:	f44f 6440 	mov.w	r4, #3072	; 0xc00
 8001132:	f2c4 0401 	movt	r4, #16385	; 0x4001
 8001136:	4620      	mov	r0, r4
 8001138:	a901      	add	r1, sp, #4
 800113a:	f7ff f8c5 	bl	80002c8 <GPIO_Init>
 800113e:	f44f 7900 	mov.w	r9, #512	; 0x200
 8001142:	f8ad 9004 	strh.w	r9, [sp, #4]
 8001146:	f04f 0310 	mov.w	r3, #16
 800114a:	f88d 3007 	strb.w	r3, [sp, #7]
 800114e:	f44f 5580 	mov.w	r5, #4096	; 0x1000
 8001152:	f2c4 0501 	movt	r5, #16385	; 0x4001
 8001156:	4628      	mov	r0, r5
 8001158:	a901      	add	r1, sp, #4
 800115a:	f7ff f8b5 	bl	80002c8 <GPIO_Init>
 800115e:	f44f 6300 	mov.w	r3, #2048	; 0x800
 8001162:	f8ad 3004 	strh.w	r3, [sp, #4]
 8001166:	f04f 0304 	mov.w	r3, #4
 800116a:	f88d 3007 	strb.w	r3, [sp, #7]
 800116e:	4620      	mov	r0, r4
 8001170:	eb0d 0103 	add.w	r1, sp, r3
 8001174:	f7ff f8a8 	bl	80002c8 <GPIO_Init>
 8001178:	9602      	str	r6, [sp, #8]
 800117a:	f44f 5380 	mov.w	r3, #4096	; 0x1000
 800117e:	f8ad 300c 	strh.w	r3, [sp, #12]
 8001182:	f04f 0600 	mov.w	r6, #0
 8001186:	46b2      	mov	sl, r6
 8001188:	f8ad 600e 	strh.w	r6, [sp, #14]
 800118c:	f8ad 8010 	strh.w	r8, [sp, #16]
 8001190:	f8ad 6014 	strh.w	r6, [sp, #20]
 8001194:	f04f 030c 	mov.w	r3, #12
 8001198:	f8ad 3012 	strh.w	r3, [sp, #18]
 800119c:	f44f 4490 	mov.w	r4, #18432	; 0x4800
 80011a0:	f2c4 0400 	movt	r4, #16384	; 0x4000
 80011a4:	4620      	mov	r0, r4
 80011a6:	a902      	add	r1, sp, #8
 80011a8:	f7ff feb6 	bl	8000f18 <USART_Init>
 80011ac:	4620      	mov	r0, r4
 80011ae:	4639      	mov	r1, r7
 80011b0:	f7ff ff2e 	bl	8001010 <USART_Cmd>
 80011b4:	4620      	mov	r0, r4
 80011b6:	f240 5125 	movw	r1, #1317	; 0x525
 80011ba:	463a      	mov	r2, r7
 80011bc:	f7ff ff38 	bl	8001030 <USART_ITConfig>
 80011c0:	4620      	mov	r0, r4
 80011c2:	f240 6126 	movw	r1, #1574	; 0x626
 80011c6:	463a      	mov	r2, r7
 80011c8:	f7ff ff32 	bl	8001030 <USART_ITConfig>
 80011cc:	4628      	mov	r0, r5
 80011ce:	4649      	mov	r1, r9
 80011d0:	4632      	mov	r2, r6
 80011d2:	f7ff f8d9 	bl	8000388 <GPIO_WriteBit>
 80011d6:	f641 43a8 	movw	r3, #7336	; 0x1ca8
 80011da:	f2c2 0300 	movt	r3, #8192	; 0x2000
 80011de:	701e      	strb	r6, [r3, #0]
 80011e0:	b006      	add	sp, #24
 80011e2:	e8bd 87f0 	ldmia.w	sp!, {r4, r5, r6, r7, r8, r9, sl, pc}
 80011e6:	bf00      	nop

080011e8 <USART3_IRQHandler>:
 80011e8:	b510      	push	{r4, lr}
 80011ea:	f44f 4390 	mov.w	r3, #18432	; 0x4800
 80011ee:	f2c4 0300 	movt	r3, #16384	; 0x4000
 80011f2:	881b      	ldrh	r3, [r3, #0]
 80011f4:	f013 0f20 	tst.w	r3, #32
 80011f8:	f000 808a 	beq.w	8001310 <USART3_IRQHandler+0x128>
 80011fc:	f44f 4090 	mov.w	r0, #18432	; 0x4800
 8001200:	f2c4 0000 	movt	r0, #16384	; 0x4000
 8001204:	f7ff ff38 	bl	8001078 <USART_ReceiveData>
 8001208:	f641 43a8 	movw	r3, #7336	; 0x1ca8
 800120c:	f2c2 0300 	movt	r3, #8192	; 0x2000
 8001210:	781b      	ldrb	r3, [r3, #0]
 8001212:	2b04      	cmp	r3, #4
 8001214:	f040 80f0 	bne.w	80013f8 <USART3_IRQHandler+0x210>
 8001218:	f645 2394 	movw	r3, #23188	; 0x5a94
 800121c:	f2c2 0300 	movt	r3, #8192	; 0x2000
 8001220:	681b      	ldr	r3, [r3, #0]
 8001222:	2b02      	cmp	r3, #2
 8001224:	d10d      	bne.n	8001242 <USART3_IRQHandler+0x5a>
 8001226:	f641 03b4 	movw	r3, #6324	; 0x18b4
 800122a:	f2c2 0300 	movt	r3, #8192	; 0x2000
 800122e:	785b      	ldrb	r3, [r3, #1]
 8001230:	2b04      	cmp	r3, #4
 8001232:	d106      	bne.n	8001242 <USART3_IRQHandler+0x5a>
 8001234:	f645 2394 	movw	r3, #23188	; 0x5a94
 8001238:	f2c2 0300 	movt	r3, #8192	; 0x2000
 800123c:	f04f 0203 	mov.w	r2, #3
 8001240:	601a      	str	r2, [r3, #0]
 8001242:	b2c0      	uxtb	r0, r0
 8001244:	f010 0fd0 	tst.w	r0, #208	; 0xd0
 8001248:	d117      	bne.n	800127a <USART3_IRQHandler+0x92>
 800124a:	f645 2394 	movw	r3, #23188	; 0x5a94
 800124e:	f2c2 0300 	movt	r3, #8192	; 0x2000
 8001252:	681b      	ldr	r3, [r3, #0]
 8001254:	2b02      	cmp	r3, #2
 8001256:	d110      	bne.n	800127a <USART3_IRQHandler+0x92>
 8001258:	f645 239c 	movw	r3, #23196	; 0x5a9c
 800125c:	f2c2 0300 	movt	r3, #8192	; 0x2000
 8001260:	681b      	ldr	r3, [r3, #0]
 8001262:	881a      	ldrh	r2, [r3, #0]
 8001264:	f042 0204 	orr.w	r2, r2, #4
 8001268:	801a      	strh	r2, [r3, #0]
 800126a:	f645 2394 	movw	r3, #23188	; 0x5a94
 800126e:	f2c2 0300 	movt	r3, #8192	; 0x2000
 8001272:	681a      	ldr	r2, [r3, #0]
 8001274:	f102 0203 	add.w	r2, r2, #3
 8001278:	601a      	str	r2, [r3, #0]
 800127a:	f645 2394 	movw	r3, #23188	; 0x5a94
 800127e:	f2c2 0300 	movt	r3, #8192	; 0x2000
 8001282:	681b      	ldr	r3, [r3, #0]
 8001284:	2b07      	cmp	r3, #7
 8001286:	d130      	bne.n	80012ea <USART3_IRQHandler+0x102>
 8001288:	f641 43a4 	movw	r3, #7332	; 0x1ca4
 800128c:	f2c2 0300 	movt	r3, #8192	; 0x2000
 8001290:	681b      	ldr	r3, [r3, #0]
 8001292:	7018      	strb	r0, [r3, #0]
 8001294:	f641 04b4 	movw	r4, #6324	; 0x18b4
 8001298:	f2c2 0400 	movt	r4, #8192	; 0x2000
 800129c:	4620      	mov	r0, r4
 800129e:	f04f 0106 	mov.w	r1, #6
 80012a2:	f7ff fefb 	bl	800109c <CRCCalc>
 80012a6:	79e2      	ldrb	r2, [r4, #7]
 80012a8:	f3c0 230f 	ubfx	r3, r0, #8, #16
 80012ac:	429a      	cmp	r2, r3
 80012ae:	d10b      	bne.n	80012c8 <USART3_IRQHandler+0xe0>
 80012b0:	79a3      	ldrb	r3, [r4, #6]
 80012b2:	b2c0      	uxtb	r0, r0
 80012b4:	4283      	cmp	r3, r0
 80012b6:	d107      	bne.n	80012c8 <USART3_IRQHandler+0xe0>
 80012b8:	f641 439c 	movw	r3, #7324	; 0x1c9c
 80012bc:	f2c2 0300 	movt	r3, #8192	; 0x2000
 80012c0:	681b      	ldr	r3, [r3, #0]
 80012c2:	b153      	cbz	r3, 80012da <USART3_IRQHandler+0xf2>
 80012c4:	4798      	blx	r3
 80012c6:	e008      	b.n	80012da <USART3_IRQHandler+0xf2>
 80012c8:	f645 239c 	movw	r3, #23196	; 0x5a9c
 80012cc:	f2c2 0300 	movt	r3, #8192	; 0x2000
 80012d0:	681b      	ldr	r3, [r3, #0]
 80012d2:	881a      	ldrh	r2, [r3, #0]
 80012d4:	f042 0208 	orr.w	r2, r2, #8
 80012d8:	801a      	strh	r2, [r3, #0]
 80012da:	f641 43a8 	movw	r3, #7336	; 0x1ca8
 80012de:	f2c2 0300 	movt	r3, #8192	; 0x2000
 80012e2:	f04f 0200 	mov.w	r2, #0
 80012e6:	701a      	strb	r2, [r3, #0]
 80012e8:	bd10      	pop	{r4, pc}
 80012ea:	f641 43a4 	movw	r3, #7332	; 0x1ca4
 80012ee:	f2c2 0300 	movt	r3, #8192	; 0x2000
 80012f2:	681a      	ldr	r2, [r3, #0]
 80012f4:	7010      	strb	r0, [r2, #0]
 80012f6:	681a      	ldr	r2, [r3, #0]
 80012f8:	f102 0201 	add.w	r2, r2, #1
 80012fc:	601a      	str	r2, [r3, #0]
 80012fe:	f645 2394 	movw	r3, #23188	; 0x5a94
 8001302:	f2c2 0300 	movt	r3, #8192	; 0x2000
 8001306:	681a      	ldr	r2, [r3, #0]
 8001308:	f102 0201 	add.w	r2, r2, #1
 800130c:	601a      	str	r2, [r3, #0]
 800130e:	bd10      	pop	{r4, pc}
 8001310:	f44f 4390 	mov.w	r3, #18432	; 0x4800
 8001314:	f2c4 0300 	movt	r3, #16384	; 0x4000
 8001318:	881b      	ldrh	r3, [r3, #0]
 800131a:	f013 0f80 	tst.w	r3, #128	; 0x80
 800131e:	d030      	beq.n	8001382 <USART3_IRQHandler+0x19a>
 8001320:	f645 2394 	movw	r3, #23188	; 0x5a94
 8001324:	f2c2 0300 	movt	r3, #8192	; 0x2000
 8001328:	681b      	ldr	r3, [r3, #0]
 800132a:	2b00      	cmp	r3, #0
 800132c:	dd1f      	ble.n	800136e <USART3_IRQHandler+0x186>
 800132e:	f44f 4090 	mov.w	r0, #18432	; 0x4800
 8001332:	f2c4 0000 	movt	r0, #16384	; 0x4000
 8001336:	f641 44a4 	movw	r4, #7332	; 0x1ca4
 800133a:	f2c2 0400 	movt	r4, #8192	; 0x2000
 800133e:	6823      	ldr	r3, [r4, #0]
 8001340:	7819      	ldrb	r1, [r3, #0]
 8001342:	f7ff fe93 	bl	800106c <USART_SendData>
 8001346:	f645 23a0 	movw	r3, #23200	; 0x5aa0
 800134a:	f2c2 0300 	movt	r3, #8192	; 0x2000
 800134e:	6822      	ldr	r2, [r4, #0]
 8001350:	f812 0b01 	ldrb.w	r0, [r2], #1
 8001354:	7819      	ldrb	r1, [r3, #0]
 8001356:	1841      	adds	r1, r0, r1
 8001358:	7019      	strb	r1, [r3, #0]
 800135a:	6022      	str	r2, [r4, #0]
 800135c:	f645 2394 	movw	r3, #23188	; 0x5a94
 8001360:	f2c2 0300 	movt	r3, #8192	; 0x2000
 8001364:	681a      	ldr	r2, [r3, #0]
 8001366:	f102 32ff 	add.w	r2, r2, #4294967295
 800136a:	601a      	str	r2, [r3, #0]
 800136c:	bd10      	pop	{r4, pc}
 800136e:	f44f 4090 	mov.w	r0, #18432	; 0x4800
 8001372:	f2c4 0000 	movt	r0, #16384	; 0x4000
 8001376:	f240 7127 	movw	r1, #1831	; 0x727
 800137a:	f04f 0200 	mov.w	r2, #0
 800137e:	f7ff fe57 	bl	8001030 <USART_ITConfig>
 8001382:	f44f 4390 	mov.w	r3, #18432	; 0x4800
 8001386:	f2c4 0300 	movt	r3, #16384	; 0x4000
 800138a:	881b      	ldrh	r3, [r3, #0]
 800138c:	f013 0f40 	tst.w	r3, #64	; 0x40
 8001390:	d032      	beq.n	80013f8 <USART3_IRQHandler+0x210>
 8001392:	f44f 4090 	mov.w	r0, #18432	; 0x4800
 8001396:	f2c4 0000 	movt	r0, #16384	; 0x4000
 800139a:	f240 6126 	movw	r1, #1574	; 0x626
 800139e:	f7ff fe71 	bl	8001084 <USART_ClearITPendingBit>
 80013a2:	f641 43a8 	movw	r3, #7336	; 0x1ca8
 80013a6:	f2c2 0300 	movt	r3, #8192	; 0x2000
 80013aa:	781b      	ldrb	r3, [r3, #0]
 80013ac:	f103 33ff 	add.w	r3, r3, #4294967295
 80013b0:	b2db      	uxtb	r3, r3
 80013b2:	2b01      	cmp	r3, #1
 80013b4:	d820      	bhi.n	80013f8 <USART3_IRQHandler+0x210>
 80013b6:	f44f 5080 	mov.w	r0, #4096	; 0x1000
 80013ba:	f2c4 0001 	movt	r0, #16385	; 0x4001
 80013be:	f44f 7100 	mov.w	r1, #512	; 0x200
 80013c2:	f04f 0200 	mov.w	r2, #0
 80013c6:	f7fe ffdf 	bl	8000388 <GPIO_WriteBit>
 80013ca:	f641 43a8 	movw	r3, #7336	; 0x1ca8
 80013ce:	f2c2 0300 	movt	r3, #8192	; 0x2000
 80013d2:	f04f 0204 	mov.w	r2, #4
 80013d6:	701a      	strb	r2, [r3, #0]
 80013d8:	f645 2394 	movw	r3, #23188	; 0x5a94
 80013dc:	f2c2 0300 	movt	r3, #8192	; 0x2000
 80013e0:	f04f 0200 	mov.w	r2, #0
 80013e4:	601a      	str	r2, [r3, #0]
 80013e6:	f641 43a4 	movw	r3, #7332	; 0x1ca4
 80013ea:	f2c2 0300 	movt	r3, #8192	; 0x2000
 80013ee:	f641 02b4 	movw	r2, #6324	; 0x18b4
 80013f2:	f2c2 0200 	movt	r2, #8192	; 0x2000
 80013f6:	601a      	str	r2, [r3, #0]
 80013f8:	bd10      	pop	{r4, pc}
 80013fa:	bf00      	nop

080013fc <RS485_Master_SendData>:
 80013fc:	e92d 41f0 	stmdb	sp!, {r4, r5, r6, r7, r8, lr}
 8001400:	4607      	mov	r7, r0
 8001402:	4688      	mov	r8, r1
 8001404:	4615      	mov	r5, r2
 8001406:	461e      	mov	r6, r3
 8001408:	f641 43a8 	movw	r3, #7336	; 0x1ca8
 800140c:	f2c2 0300 	movt	r3, #8192	; 0x2000
 8001410:	781b      	ldrb	r3, [r3, #0]
 8001412:	b17b      	cbz	r3, 8001434 <RS485_Master_SendData+0x38>
 8001414:	f645 239c 	movw	r3, #23196	; 0x5a9c
 8001418:	f2c2 0300 	movt	r3, #8192	; 0x2000
 800141c:	681b      	ldr	r3, [r3, #0]
 800141e:	881a      	ldrh	r2, [r3, #0]
 8001420:	f042 0210 	orr.w	r2, r2, #16
 8001424:	801a      	strh	r2, [r3, #0]
 8001426:	f641 43a8 	movw	r3, #7336	; 0x1ca8
 800142a:	f2c2 0300 	movt	r3, #8192	; 0x2000
 800142e:	f04f 0200 	mov.w	r2, #0
 8001432:	701a      	strb	r2, [r3, #0]
 8001434:	f641 439c 	movw	r3, #7324	; 0x1c9c
 8001438:	f2c2 0300 	movt	r3, #8192	; 0x2000
 800143c:	9a07      	ldr	r2, [sp, #28]
 800143e:	601a      	str	r2, [r3, #0]
 8001440:	f645 239c 	movw	r3, #23196	; 0x5a9c
 8001444:	f2c2 0300 	movt	r3, #8192	; 0x2000
 8001448:	9a06      	ldr	r2, [sp, #24]
 800144a:	601a      	str	r2, [r3, #0]
 800144c:	f641 43ac 	movw	r3, #7340	; 0x1cac
 8001450:	f2c2 0300 	movt	r3, #8192	; 0x2000
 8001454:	f04f 0202 	mov.w	r2, #2
 8001458:	601a      	str	r2, [r3, #0]
 800145a:	f44f 73fa 	mov.w	r3, #500	; 0x1f4
 800145e:	f103 33ff 	add.w	r3, r3, #4294967295
 8001462:	b29b      	uxth	r3, r3
 8001464:	2b00      	cmp	r3, #0
 8001466:	d1fa      	bne.n	800145e <RS485_Master_SendData+0x62>
 8001468:	f44f 5080 	mov.w	r0, #4096	; 0x1000
 800146c:	f2c4 0001 	movt	r0, #16385	; 0x4001
 8001470:	f44f 7100 	mov.w	r1, #512	; 0x200
 8001474:	f04f 0201 	mov.w	r2, #1
 8001478:	f7fe ff86 	bl	8000388 <GPIO_WriteBit>
 800147c:	f641 04b4 	movw	r4, #6324	; 0x18b4
 8001480:	f2c2 0400 	movt	r4, #8192	; 0x2000
 8001484:	7027      	strb	r7, [r4, #0]
 8001486:	f884 8001 	strb.w	r8, [r4, #1]
 800148a:	ea4f 2315 	mov.w	r3, r5, lsr #8
 800148e:	70a3      	strb	r3, [r4, #2]
 8001490:	70e5      	strb	r5, [r4, #3]
 8001492:	ea4f 2316 	mov.w	r3, r6, lsr #8
 8001496:	7123      	strb	r3, [r4, #4]
 8001498:	7166      	strb	r6, [r4, #5]
 800149a:	4620      	mov	r0, r4
 800149c:	f04f 0106 	mov.w	r1, #6
 80014a0:	f7ff fdfc 	bl	800109c <CRCCalc>
 80014a4:	71a0      	strb	r0, [r4, #6]
 80014a6:	ea4f 2010 	mov.w	r0, r0, lsr #8
 80014aa:	71e0      	strb	r0, [r4, #7]
 80014ac:	f641 43a4 	movw	r3, #7332	; 0x1ca4
 80014b0:	f2c2 0300 	movt	r3, #8192	; 0x2000
 80014b4:	601c      	str	r4, [r3, #0]
 80014b6:	f645 2394 	movw	r3, #23188	; 0x5a94
 80014ba:	f2c2 0300 	movt	r3, #8192	; 0x2000
 80014be:	f04f 0207 	mov.w	r2, #7
 80014c2:	601a      	str	r2, [r3, #0]
 80014c4:	f641 43a8 	movw	r3, #7336	; 0x1ca8
 80014c8:	f2c2 0300 	movt	r3, #8192	; 0x2000
 80014cc:	f04f 0201 	mov.w	r2, #1
 80014d0:	701a      	strb	r2, [r3, #0]
 80014d2:	f04f 0364 	mov.w	r3, #100	; 0x64
 80014d6:	f103 33ff 	add.w	r3, r3, #4294967295
 80014da:	b29b      	uxth	r3, r3
 80014dc:	2b00      	cmp	r3, #0
 80014de:	d1fa      	bne.n	80014d6 <RS485_Master_SendData+0xda>
 80014e0:	f44f 4590 	mov.w	r5, #18432	; 0x4800
 80014e4:	f2c4 0500 	movt	r5, #16384	; 0x4000
 80014e8:	4628      	mov	r0, r5
 80014ea:	f240 7127 	movw	r1, #1831	; 0x727
 80014ee:	f04f 0201 	mov.w	r2, #1
 80014f2:	f7ff fd9d 	bl	8001030 <USART_ITConfig>
 80014f6:	f641 44a4 	movw	r4, #7332	; 0x1ca4
 80014fa:	f2c2 0400 	movt	r4, #8192	; 0x2000
 80014fe:	6823      	ldr	r3, [r4, #0]
 8001500:	7819      	ldrb	r1, [r3, #0]
 8001502:	4628      	mov	r0, r5
 8001504:	f7ff fdb2 	bl	800106c <USART_SendData>
 8001508:	6823      	ldr	r3, [r4, #0]
 800150a:	f103 0301 	add.w	r3, r3, #1
 800150e:	6023      	str	r3, [r4, #0]
 8001510:	f04f 0000 	mov.w	r0, #0
 8001514:	e8bd 81f0 	ldmia.w	sp!, {r4, r5, r6, r7, r8, pc}

08001518 <SendFans>:
 8001518:	b530      	push	{r4, r5, lr}
 800151a:	b083      	sub	sp, #12
 800151c:	f645 2374 	movw	r3, #23156	; 0x5a74
 8001520:	f2c2 0300 	movt	r3, #8192	; 0x2000
 8001524:	6018      	str	r0, [r3, #0]
 8001526:	f04f 0203 	mov.w	r2, #3
 800152a:	7082      	strb	r2, [r0, #2]
 800152c:	6818      	ldr	r0, [r3, #0]
 800152e:	7881      	ldrb	r1, [r0, #2]
 8001530:	2900      	cmp	r1, #0
 8001532:	f000 8101 	beq.w	8001738 <SendFans+0x220>
 8001536:	f645 2386 	movw	r3, #23174	; 0x5a86
 800153a:	f2c2 0300 	movt	r3, #8192	; 0x2000
 800153e:	781c      	ldrb	r4, [r3, #0]
 8001540:	f104 0401 	add.w	r4, r4, #1
 8001544:	b2e4      	uxtb	r4, r4
 8001546:	f64a 22ab 	movw	r2, #43691	; 0xaaab
 800154a:	f6ca 22aa 	movt	r2, #43690	; 0xaaaa
 800154e:	fba2 5204 	umull	r5, r2, r2, r4
 8001552:	ea4f 0292 	mov.w	r2, r2, lsr #2
 8001556:	eb02 0242 	add.w	r2, r2, r2, lsl #1
 800155a:	eba4 0242 	sub.w	r2, r4, r2, lsl #1
 800155e:	b2d2      	uxtb	r2, r2
 8001560:	701a      	strb	r2, [r3, #0]
 8001562:	b9ea      	cbnz	r2, 80015a0 <SendFans+0x88>
 8001564:	f641 43aa 	movw	r3, #7338	; 0x1caa
 8001568:	f2c2 0300 	movt	r3, #8192	; 0x2000
 800156c:	881a      	ldrh	r2, [r3, #0]
 800156e:	f102 0201 	add.w	r2, r2, #1
 8001572:	b292      	uxth	r2, r2
 8001574:	801a      	strh	r2, [r3, #0]
 8001576:	f011 0f80 	tst.w	r1, #128	; 0x80
 800157a:	bf1c      	itt	ne
 800157c:	237f      	movne	r3, #127	; 0x7f
 800157e:	7083      	strbne	r3, [r0, #2]
 8001580:	f641 43aa 	movw	r3, #7338	; 0x1caa
 8001584:	f2c2 0300 	movt	r3, #8192	; 0x2000
 8001588:	f645 2174 	movw	r1, #23156	; 0x5a74
 800158c:	f2c2 0100 	movt	r1, #8192	; 0x2000
 8001590:	6809      	ldr	r1, [r1, #0]
 8001592:	7889      	ldrb	r1, [r1, #2]
 8001594:	fb92 f0f1 	sdiv	r0, r2, r1
 8001598:	fb01 2210 	mls	r2, r1, r0, r2
 800159c:	801a      	strh	r2, [r3, #0]
 800159e:	e007      	b.n	80015b0 <SendFans+0x98>
 80015a0:	2a05      	cmp	r2, #5
 80015a2:	f200 80c9 	bhi.w	8001738 <SendFans+0x220>
 80015a6:	e8df f002 	tbb	[pc, r2]
 80015aa:	2803      	.short	0x2803
 80015ac:	a8886848 	.word	0xa8886848
 80015b0:	f645 2374 	movw	r3, #23156	; 0x5a74
 80015b4:	f2c2 0300 	movt	r3, #8192	; 0x2000
 80015b8:	681b      	ldr	r3, [r3, #0]
 80015ba:	881a      	ldrh	r2, [r3, #0]
 80015bc:	2a14      	cmp	r2, #20
 80015be:	bf28      	it	cs
 80015c0:	2214      	movcs	r2, #20
 80015c2:	ea4f 4202 	mov.w	r2, r2, lsl #16
 80015c6:	f248 531f 	movw	r3, #34079	; 0x851f
 80015ca:	f2c5 13eb 	movt	r3, #20971	; 0x51eb
 80015ce:	fb83 5302 	smull	r5, r3, r3, r2
 80015d2:	ea4f 72e2 	mov.w	r2, r2, asr #31
 80015d6:	ebc2 1363 	rsb	r3, r2, r3, asr #5
 80015da:	b29b      	uxth	r3, r3
 80015dc:	f645 2278 	movw	r2, #23160	; 0x5a78
 80015e0:	f2c2 0200 	movt	r2, #8192	; 0x2000
 80015e4:	9200      	str	r2, [sp, #0]
 80015e6:	f04f 0000 	mov.w	r0, #0
 80015ea:	9001      	str	r0, [sp, #4]
 80015ec:	f04f 0106 	mov.w	r1, #6
 80015f0:	f24d 0201 	movw	r2, #53249	; 0xd001
 80015f4:	f7ff ff02 	bl	80013fc <RS485_Master_SendData>
 80015f8:	e09e      	b.n	8001738 <SendFans+0x220>
 80015fa:	f641 43aa 	movw	r3, #7338	; 0x1caa
 80015fe:	f2c2 0300 	movt	r3, #8192	; 0x2000
 8001602:	881a      	ldrh	r2, [r3, #0]
 8001604:	f102 0001 	add.w	r0, r2, #1
 8001608:	b2c0      	uxtb	r0, r0
 800160a:	f645 2374 	movw	r3, #23156	; 0x5a74
 800160e:	f2c2 0300 	movt	r3, #8192	; 0x2000
 8001612:	ebc2 02c2 	rsb	r2, r2, r2, lsl #3
 8001616:	681b      	ldr	r3, [r3, #0]
 8001618:	eb03 0242 	add.w	r2, r3, r2, lsl #1
 800161c:	f102 0203 	add.w	r2, r2, #3
 8001620:	9200      	str	r2, [sp, #0]
 8001622:	f04f 0300 	mov.w	r3, #0
 8001626:	9301      	str	r3, [sp, #4]
 8001628:	f04f 0104 	mov.w	r1, #4
 800162c:	f24d 0210 	movw	r2, #53264	; 0xd010
 8001630:	f240 1301 	movw	r3, #257	; 0x101
 8001634:	f7ff fee2 	bl	80013fc <RS485_Master_SendData>
 8001638:	e07e      	b.n	8001738 <SendFans+0x220>
 800163a:	f641 43aa 	movw	r3, #7338	; 0x1caa
 800163e:	f2c2 0300 	movt	r3, #8192	; 0x2000
 8001642:	881a      	ldrh	r2, [r3, #0]
 8001644:	f102 0001 	add.w	r0, r2, #1
 8001648:	b2c0      	uxtb	r0, r0
 800164a:	f645 2374 	movw	r3, #23156	; 0x5a74
 800164e:	f2c2 0300 	movt	r3, #8192	; 0x2000
 8001652:	ebc2 02c2 	rsb	r2, r2, r2, lsl #3
 8001656:	681b      	ldr	r3, [r3, #0]
 8001658:	eb03 0242 	add.w	r2, r3, r2, lsl #1
 800165c:	f102 0203 	add.w	r2, r2, #3
 8001660:	9200      	str	r2, [sp, #0]
 8001662:	f04f 0300 	mov.w	r3, #0
 8001666:	9301      	str	r3, [sp, #4]
 8001668:	f04f 0104 	mov.w	r1, #4
 800166c:	f24d 0211 	movw	r2, #53265	; 0xd011
 8001670:	f240 1301 	movw	r3, #257	; 0x101
 8001674:	f7ff fec2 	bl	80013fc <RS485_Master_SendData>
 8001678:	e05e      	b.n	8001738 <SendFans+0x220>
 800167a:	f641 43aa 	movw	r3, #7338	; 0x1caa
 800167e:	f2c2 0300 	movt	r3, #8192	; 0x2000
 8001682:	881a      	ldrh	r2, [r3, #0]
 8001684:	f102 0001 	add.w	r0, r2, #1
 8001688:	b2c0      	uxtb	r0, r0
 800168a:	f645 2374 	movw	r3, #23156	; 0x5a74
 800168e:	f2c2 0300 	movt	r3, #8192	; 0x2000
 8001692:	ebc2 02c2 	rsb	r2, r2, r2, lsl #3
 8001696:	681b      	ldr	r3, [r3, #0]
 8001698:	eb03 0242 	add.w	r2, r3, r2, lsl #1
 800169c:	f102 0203 	add.w	r2, r2, #3
 80016a0:	9200      	str	r2, [sp, #0]
 80016a2:	f04f 0300 	mov.w	r3, #0
 80016a6:	9301      	str	r3, [sp, #4]
 80016a8:	f04f 0104 	mov.w	r1, #4
 80016ac:	f24d 0216 	movw	r2, #53270	; 0xd016
 80016b0:	f240 1301 	movw	r3, #257	; 0x101
 80016b4:	f7ff fea2 	bl	80013fc <RS485_Master_SendData>
 80016b8:	e03e      	b.n	8001738 <SendFans+0x220>
 80016ba:	f641 43aa 	movw	r3, #7338	; 0x1caa
 80016be:	f2c2 0300 	movt	r3, #8192	; 0x2000
 80016c2:	881a      	ldrh	r2, [r3, #0]
 80016c4:	f102 0001 	add.w	r0, r2, #1
 80016c8:	b2c0      	uxtb	r0, r0
 80016ca:	f645 2374 	movw	r3, #23156	; 0x5a74
 80016ce:	f2c2 0300 	movt	r3, #8192	; 0x2000
 80016d2:	ebc2 02c2 	rsb	r2, r2, r2, lsl #3
 80016d6:	681b      	ldr	r3, [r3, #0]
 80016d8:	eb03 0242 	add.w	r2, r3, r2, lsl #1
 80016dc:	f102 0203 	add.w	r2, r2, #3
 80016e0:	9200      	str	r2, [sp, #0]
 80016e2:	f04f 0300 	mov.w	r3, #0
 80016e6:	9301      	str	r3, [sp, #4]
 80016e8:	f04f 0104 	mov.w	r1, #4
 80016ec:	f24d 021a 	movw	r2, #53274	; 0xd01a
 80016f0:	f240 1301 	movw	r3, #257	; 0x101
 80016f4:	f7ff fe82 	bl	80013fc <RS485_Master_SendData>
 80016f8:	e01e      	b.n	8001738 <SendFans+0x220>
 80016fa:	f641 43aa 	movw	r3, #7338	; 0x1caa
 80016fe:	f2c2 0300 	movt	r3, #8192	; 0x2000
 8001702:	881a      	ldrh	r2, [r3, #0]
 8001704:	f102 0001 	add.w	r0, r2, #1
 8001708:	b2c0      	uxtb	r0, r0
 800170a:	f645 2374 	movw	r3, #23156	; 0x5a74
 800170e:	f2c2 0300 	movt	r3, #8192	; 0x2000
 8001712:	ebc2 02c2 	rsb	r2, r2, r2, lsl #3
 8001716:	681b      	ldr	r3, [r3, #0]
 8001718:	eb03 0242 	add.w	r2, r3, r2, lsl #1
 800171c:	f102 0203 	add.w	r2, r2, #3
 8001720:	9200      	str	r2, [sp, #0]
 8001722:	f04f 0300 	mov.w	r3, #0
 8001726:	9301      	str	r3, [sp, #4]
 8001728:	f04f 0104 	mov.w	r1, #4
 800172c:	f24d 0221 	movw	r2, #53281	; 0xd021
 8001730:	f240 1301 	movw	r3, #257	; 0x101
 8001734:	f7ff fe62 	bl	80013fc <RS485_Master_SendData>
 8001738:	b003      	add	sp, #12
 800173a:	bd30      	pop	{r4, r5, pc}

0800173c <NVIC_Init>:
 800173c:	b410      	push	{r4}
 800173e:	78c3      	ldrb	r3, [r0, #3]
 8001740:	b35b      	cbz	r3, 800179a <NVIC_Init+0x5e>
 8001742:	f44f 436d 	mov.w	r3, #60672	; 0xed00
 8001746:	f2ce 0300 	movt	r3, #57344	; 0xe000
 800174a:	68db      	ldr	r3, [r3, #12]
 800174c:	ea6f 0303 	mvn.w	r3, r3
 8001750:	f3c3 2302 	ubfx	r3, r3, #8, #3
 8001754:	f1c3 0204 	rsb	r2, r3, #4
 8001758:	7841      	ldrb	r1, [r0, #1]
 800175a:	fa01 f202 	lsl.w	r2, r1, r2
 800175e:	f04f 010f 	mov.w	r1, #15
 8001762:	fa21 f103 	lsr.w	r1, r1, r3
 8001766:	7884      	ldrb	r4, [r0, #2]
 8001768:	4021      	ands	r1, r4
 800176a:	4311      	orrs	r1, r2
 800176c:	7802      	ldrb	r2, [r0, #0]
 800176e:	ea4f 1101 	mov.w	r1, r1, lsl #4
 8001772:	b2c9      	uxtb	r1, r1
 8001774:	f44f 4361 	mov.w	r3, #57600	; 0xe100
 8001778:	f2ce 0300 	movt	r3, #57344	; 0xe000
 800177c:	189a      	adds	r2, r3, r2
 800177e:	f882 1300 	strb.w	r1, [r2, #768]	; 0x300
 8001782:	7802      	ldrb	r2, [r0, #0]
 8001784:	ea4f 1152 	mov.w	r1, r2, lsr #5
 8001788:	f002 021f 	and.w	r2, r2, #31
 800178c:	f04f 0001 	mov.w	r0, #1
 8001790:	fa00 f202 	lsl.w	r2, r0, r2
 8001794:	f843 2021 	str.w	r2, [r3, r1, lsl #2]
 8001798:	e010      	b.n	80017bc <NVIC_Init+0x80>
 800179a:	7803      	ldrb	r3, [r0, #0]
 800179c:	ea4f 1253 	mov.w	r2, r3, lsr #5
 80017a0:	f003 031f 	and.w	r3, r3, #31
 80017a4:	f04f 0101 	mov.w	r1, #1
 80017a8:	fa01 f103 	lsl.w	r1, r1, r3
 80017ac:	f44f 4361 	mov.w	r3, #57600	; 0xe100
 80017b0:	f2ce 0300 	movt	r3, #57344	; 0xe000
 80017b4:	f102 0220 	add.w	r2, r2, #32
 80017b8:	f843 1022 	str.w	r1, [r3, r2, lsl #2]
 80017bc:	bc10      	pop	{r4}
 80017be:	4770      	bx	lr

080017c0 <IWDG_ReloadCounter>:
 80017c0:	f44f 5340 	mov.w	r3, #12288	; 0x3000
 80017c4:	f2c4 0300 	movt	r3, #16384	; 0x4000
 80017c8:	f64a 22aa 	movw	r2, #43690	; 0xaaaa
 80017cc:	601a      	str	r2, [r3, #0]
 80017ce:	4770      	bx	lr
